
coremark.bin: formato do arquivo elf32-littleriscv


Desmontagem da seção .text:

00000068 <register_fini>:
      68:	00000793          	li	a5,0
      6c:	00078863          	beqz	a5,7c <register_fini+0x14>
      70:	00005537          	lui	a0,0x5
      74:	bf050513          	addi	a0,a0,-1040 # 4bf0 <__libc_fini_array>
      78:	3d50406f          	j	4c4c <atexit>
      7c:	00008067          	ret

00000080 <_start>:
      80:	00006197          	auipc	gp,0x6
      84:	79018193          	addi	gp,gp,1936 # 6810 <__global_pointer$>
      88:	cb418513          	addi	a0,gp,-844 # 64c4 <seed1_volatile>
      8c:	4b818613          	addi	a2,gp,1208 # 6cc8 <__BSS_END__>
      90:	40a60633          	sub	a2,a2,a0
      94:	00000593          	li	a1,0
      98:	15d040ef          	jal	ra,49f4 <memset>
      9c:	00005517          	auipc	a0,0x5
      a0:	bb050513          	addi	a0,a0,-1104 # 4c4c <atexit>
      a4:	00050863          	beqz	a0,b4 <_start+0x34>
      a8:	00005517          	auipc	a0,0x5
      ac:	b4850513          	addi	a0,a0,-1208 # 4bf0 <__libc_fini_array>
      b0:	39d040ef          	jal	ra,4c4c <atexit>
      b4:	0a5040ef          	jal	ra,4958 <__libc_init_array>
      b8:	00012503          	lw	a0,0(sp)
      bc:	00410593          	addi	a1,sp,4
      c0:	00000613          	li	a2,0
      c4:	7c1000ef          	jal	ra,1084 <main>
      c8:	0610406f          	j	4928 <exit>

000000cc <__do_global_dtors_aux>:
      cc:	cc41c703          	lbu	a4,-828(gp) # 64d4 <completed.1>
      d0:	04071263          	bnez	a4,114 <__do_global_dtors_aux+0x48>
      d4:	ff010113          	addi	sp,sp,-16
      d8:	00812423          	sw	s0,8(sp)
      dc:	00078413          	mv	s0,a5
      e0:	00112623          	sw	ra,12(sp)
      e4:	00000793          	li	a5,0
      e8:	00078a63          	beqz	a5,fc <__do_global_dtors_aux+0x30>
      ec:	00006537          	lui	a0,0x6
      f0:	00050513          	mv	a0,a0
      f4:	00000097          	auipc	ra,0x0
      f8:	000000e7          	jalr	zero # 0 <register_fini-0x68>
      fc:	00100793          	li	a5,1
     100:	00c12083          	lw	ra,12(sp)
     104:	ccf18223          	sb	a5,-828(gp) # 64d4 <completed.1>
     108:	00812403          	lw	s0,8(sp)
     10c:	01010113          	addi	sp,sp,16
     110:	00008067          	ret
     114:	00008067          	ret

00000118 <frame_dummy>:
     118:	00000793          	li	a5,0
     11c:	00078c63          	beqz	a5,134 <frame_dummy+0x1c>
     120:	00006537          	lui	a0,0x6
     124:	cc818593          	addi	a1,gp,-824 # 64d8 <object.0>
     128:	00050513          	mv	a0,a0
     12c:	00000317          	auipc	t1,0x0
     130:	00000067          	jr	zero # 0 <register_fini-0x68>
     134:	00008067          	ret

00000138 <calc_func>:
     138:	fd010113          	addi	sp,sp,-48
     13c:	02112623          	sw	ra,44(sp)
     140:	02812423          	sw	s0,40(sp)
     144:	03010413          	addi	s0,sp,48
     148:	fca42e23          	sw	a0,-36(s0)
     14c:	fcb42c23          	sw	a1,-40(s0)
     150:	fdc42783          	lw	a5,-36(s0)
     154:	0007d783          	lhu	a5,0(a5)
     158:	fef41523          	sh	a5,-22(s0)
     15c:	fea41783          	lh	a5,-22(s0)
     160:	4077d793          	srai	a5,a5,0x7
     164:	01079793          	slli	a5,a5,0x10
     168:	4107d793          	srai	a5,a5,0x10
     16c:	0ff7f793          	andi	a5,a5,255
     170:	0017f793          	andi	a5,a5,1
     174:	fef404a3          	sb	a5,-23(s0)
     178:	fe944783          	lbu	a5,-23(s0)
     17c:	00078c63          	beqz	a5,194 <calc_func+0x5c>
     180:	fea45783          	lhu	a5,-22(s0)
     184:	07f7f793          	andi	a5,a5,127
     188:	01079793          	slli	a5,a5,0x10
     18c:	4107d793          	srai	a5,a5,0x10
     190:	18c0006f          	j	31c <calc_func+0x1e4>
     194:	fea45783          	lhu	a5,-22(s0)
     198:	0077f793          	andi	a5,a5,7
     19c:	fef41323          	sh	a5,-26(s0)
     1a0:	fea41783          	lh	a5,-22(s0)
     1a4:	4037d793          	srai	a5,a5,0x3
     1a8:	01079793          	slli	a5,a5,0x10
     1ac:	4107d793          	srai	a5,a5,0x10
     1b0:	00f7f793          	andi	a5,a5,15
     1b4:	fef41623          	sh	a5,-20(s0)
     1b8:	fec41783          	lh	a5,-20(s0)
     1bc:	00479793          	slli	a5,a5,0x4
     1c0:	01079713          	slli	a4,a5,0x10
     1c4:	41075713          	srai	a4,a4,0x10
     1c8:	fec45783          	lhu	a5,-20(s0)
     1cc:	00f767b3          	or	a5,a4,a5
     1d0:	fef41623          	sh	a5,-20(s0)
     1d4:	fe641783          	lh	a5,-26(s0)
     1d8:	00078863          	beqz	a5,1e8 <calc_func+0xb0>
     1dc:	00100713          	li	a4,1
     1e0:	06e78863          	beq	a5,a4,250 <calc_func+0x118>
     1e4:	0b40006f          	j	298 <calc_func+0x160>
     1e8:	fec41703          	lh	a4,-20(s0)
     1ec:	02100793          	li	a5,33
     1f0:	00e7c663          	blt	a5,a4,1fc <calc_func+0xc4>
     1f4:	02200793          	li	a5,34
     1f8:	fef41623          	sh	a5,-20(s0)
     1fc:	fd842783          	lw	a5,-40(s0)
     200:	0187a503          	lw	a0,24(a5)
     204:	fd842783          	lw	a5,-40(s0)
     208:	0147a583          	lw	a1,20(a5)
     20c:	fd842783          	lw	a5,-40(s0)
     210:	00079603          	lh	a2,0(a5)
     214:	fd842783          	lw	a5,-40(s0)
     218:	00279683          	lh	a3,2(a5)
     21c:	fd842783          	lw	a5,-40(s0)
     220:	0387d783          	lhu	a5,56(a5)
     224:	fec41703          	lh	a4,-20(s0)
     228:	09d020ef          	jal	ra,2ac4 <core_bench_state>
     22c:	00050793          	mv	a5,a0
     230:	fef41723          	sh	a5,-18(s0)
     234:	fd842783          	lw	a5,-40(s0)
     238:	03e7d783          	lhu	a5,62(a5)
     23c:	06079463          	bnez	a5,2a4 <calc_func+0x16c>
     240:	fee45703          	lhu	a4,-18(s0)
     244:	fd842783          	lw	a5,-40(s0)
     248:	02e79f23          	sh	a4,62(a5)
     24c:	0580006f          	j	2a4 <calc_func+0x16c>
     250:	fd842783          	lw	a5,-40(s0)
     254:	02878713          	addi	a4,a5,40
     258:	fd842783          	lw	a5,-40(s0)
     25c:	0387d683          	lhu	a3,56(a5)
     260:	fec41783          	lh	a5,-20(s0)
     264:	00068613          	mv	a2,a3
     268:	00078593          	mv	a1,a5
     26c:	00070513          	mv	a0,a4
     270:	3f1010ef          	jal	ra,1e60 <core_bench_matrix>
     274:	00050793          	mv	a5,a0
     278:	fef41723          	sh	a5,-18(s0)
     27c:	fd842783          	lw	a5,-40(s0)
     280:	03c7d783          	lhu	a5,60(a5)
     284:	02079463          	bnez	a5,2ac <calc_func+0x174>
     288:	fee45703          	lhu	a4,-18(s0)
     28c:	fd842783          	lw	a5,-40(s0)
     290:	02e79e23          	sh	a4,60(a5)
     294:	0180006f          	j	2ac <calc_func+0x174>
     298:	fea45783          	lhu	a5,-22(s0)
     29c:	fef41723          	sh	a5,-18(s0)
     2a0:	0100006f          	j	2b0 <calc_func+0x178>
     2a4:	00000013          	nop
     2a8:	0080006f          	j	2b0 <calc_func+0x178>
     2ac:	00000013          	nop
     2b0:	fee45703          	lhu	a4,-18(s0)
     2b4:	fd842783          	lw	a5,-40(s0)
     2b8:	0387d783          	lhu	a5,56(a5)
     2bc:	00078593          	mv	a1,a5
     2c0:	00070513          	mv	a0,a4
     2c4:	2a0030ef          	jal	ra,3564 <crcu16>
     2c8:	00050793          	mv	a5,a0
     2cc:	00078713          	mv	a4,a5
     2d0:	fd842783          	lw	a5,-40(s0)
     2d4:	02e79c23          	sh	a4,56(a5)
     2d8:	fee45783          	lhu	a5,-18(s0)
     2dc:	07f7f793          	andi	a5,a5,127
     2e0:	fef41723          	sh	a5,-18(s0)
     2e4:	fea45783          	lhu	a5,-22(s0)
     2e8:	f007f793          	andi	a5,a5,-256
     2ec:	01079793          	slli	a5,a5,0x10
     2f0:	4107d793          	srai	a5,a5,0x10
     2f4:	0807e793          	ori	a5,a5,128
     2f8:	01079713          	slli	a4,a5,0x10
     2fc:	41075713          	srai	a4,a4,0x10
     300:	fee45783          	lhu	a5,-18(s0)
     304:	00f767b3          	or	a5,a4,a5
     308:	01079713          	slli	a4,a5,0x10
     30c:	41075713          	srai	a4,a4,0x10
     310:	fdc42783          	lw	a5,-36(s0)
     314:	00e79023          	sh	a4,0(a5)
     318:	fee41783          	lh	a5,-18(s0)
     31c:	00078513          	mv	a0,a5
     320:	02c12083          	lw	ra,44(sp)
     324:	02812403          	lw	s0,40(sp)
     328:	03010113          	addi	sp,sp,48
     32c:	00008067          	ret

00000330 <cmp_complex>:
     330:	fd010113          	addi	sp,sp,-48
     334:	02112623          	sw	ra,44(sp)
     338:	02812423          	sw	s0,40(sp)
     33c:	03010413          	addi	s0,sp,48
     340:	fca42e23          	sw	a0,-36(s0)
     344:	fcb42c23          	sw	a1,-40(s0)
     348:	fcc42a23          	sw	a2,-44(s0)
     34c:	fdc42783          	lw	a5,-36(s0)
     350:	fd442583          	lw	a1,-44(s0)
     354:	00078513          	mv	a0,a5
     358:	de1ff0ef          	jal	ra,138 <calc_func>
     35c:	00050793          	mv	a5,a0
     360:	fef41723          	sh	a5,-18(s0)
     364:	fd842783          	lw	a5,-40(s0)
     368:	fd442583          	lw	a1,-44(s0)
     36c:	00078513          	mv	a0,a5
     370:	dc9ff0ef          	jal	ra,138 <calc_func>
     374:	00050793          	mv	a5,a0
     378:	fef41623          	sh	a5,-20(s0)
     37c:	fee41703          	lh	a4,-18(s0)
     380:	fec41783          	lh	a5,-20(s0)
     384:	40f707b3          	sub	a5,a4,a5
     388:	00078513          	mv	a0,a5
     38c:	02c12083          	lw	ra,44(sp)
     390:	02812403          	lw	s0,40(sp)
     394:	03010113          	addi	sp,sp,48
     398:	00008067          	ret

0000039c <cmp_idx>:
     39c:	fe010113          	addi	sp,sp,-32
     3a0:	00812e23          	sw	s0,28(sp)
     3a4:	02010413          	addi	s0,sp,32
     3a8:	fea42623          	sw	a0,-20(s0)
     3ac:	feb42423          	sw	a1,-24(s0)
     3b0:	fec42223          	sw	a2,-28(s0)
     3b4:	fe442783          	lw	a5,-28(s0)
     3b8:	08079e63          	bnez	a5,454 <cmp_idx+0xb8>
     3bc:	fec42783          	lw	a5,-20(s0)
     3c0:	00079783          	lh	a5,0(a5)
     3c4:	f007f793          	andi	a5,a5,-256
     3c8:	01079713          	slli	a4,a5,0x10
     3cc:	41075713          	srai	a4,a4,0x10
     3d0:	fec42783          	lw	a5,-20(s0)
     3d4:	00079783          	lh	a5,0(a5)
     3d8:	01079793          	slli	a5,a5,0x10
     3dc:	0107d793          	srli	a5,a5,0x10
     3e0:	0087d793          	srli	a5,a5,0x8
     3e4:	01079793          	slli	a5,a5,0x10
     3e8:	0107d793          	srli	a5,a5,0x10
     3ec:	01079793          	slli	a5,a5,0x10
     3f0:	4107d793          	srai	a5,a5,0x10
     3f4:	00f767b3          	or	a5,a4,a5
     3f8:	01079713          	slli	a4,a5,0x10
     3fc:	41075713          	srai	a4,a4,0x10
     400:	fec42783          	lw	a5,-20(s0)
     404:	00e79023          	sh	a4,0(a5)
     408:	fe842783          	lw	a5,-24(s0)
     40c:	00079783          	lh	a5,0(a5)
     410:	f007f793          	andi	a5,a5,-256
     414:	01079713          	slli	a4,a5,0x10
     418:	41075713          	srai	a4,a4,0x10
     41c:	fe842783          	lw	a5,-24(s0)
     420:	00079783          	lh	a5,0(a5)
     424:	01079793          	slli	a5,a5,0x10
     428:	0107d793          	srli	a5,a5,0x10
     42c:	0087d793          	srli	a5,a5,0x8
     430:	01079793          	slli	a5,a5,0x10
     434:	0107d793          	srli	a5,a5,0x10
     438:	01079793          	slli	a5,a5,0x10
     43c:	4107d793          	srai	a5,a5,0x10
     440:	00f767b3          	or	a5,a4,a5
     444:	01079713          	slli	a4,a5,0x10
     448:	41075713          	srai	a4,a4,0x10
     44c:	fe842783          	lw	a5,-24(s0)
     450:	00e79023          	sh	a4,0(a5)
     454:	fec42783          	lw	a5,-20(s0)
     458:	00279783          	lh	a5,2(a5)
     45c:	00078713          	mv	a4,a5
     460:	fe842783          	lw	a5,-24(s0)
     464:	00279783          	lh	a5,2(a5)
     468:	40f707b3          	sub	a5,a4,a5
     46c:	00078513          	mv	a0,a5
     470:	01c12403          	lw	s0,28(sp)
     474:	02010113          	addi	sp,sp,32
     478:	00008067          	ret

0000047c <copy_info>:
     47c:	fe010113          	addi	sp,sp,-32
     480:	00812e23          	sw	s0,28(sp)
     484:	02010413          	addi	s0,sp,32
     488:	fea42623          	sw	a0,-20(s0)
     48c:	feb42423          	sw	a1,-24(s0)
     490:	fe842783          	lw	a5,-24(s0)
     494:	00079703          	lh	a4,0(a5)
     498:	fec42783          	lw	a5,-20(s0)
     49c:	00e79023          	sh	a4,0(a5)
     4a0:	fe842783          	lw	a5,-24(s0)
     4a4:	00279703          	lh	a4,2(a5)
     4a8:	fec42783          	lw	a5,-20(s0)
     4ac:	00e79123          	sh	a4,2(a5)
     4b0:	00000013          	nop
     4b4:	01c12403          	lw	s0,28(sp)
     4b8:	02010113          	addi	sp,sp,32
     4bc:	00008067          	ret

000004c0 <core_bench_list>:
     4c0:	fc010113          	addi	sp,sp,-64
     4c4:	02112e23          	sw	ra,60(sp)
     4c8:	02812c23          	sw	s0,56(sp)
     4cc:	04010413          	addi	s0,sp,64
     4d0:	fca42623          	sw	a0,-52(s0)
     4d4:	00058793          	mv	a5,a1
     4d8:	fcf41523          	sh	a5,-54(s0)
     4dc:	fe041723          	sh	zero,-18(s0)
     4e0:	fe041623          	sh	zero,-20(s0)
     4e4:	fe041523          	sh	zero,-22(s0)
     4e8:	fcc42783          	lw	a5,-52(s0)
     4ec:	0247a783          	lw	a5,36(a5)
     4f0:	fef42223          	sw	a5,-28(s0)
     4f4:	fcc42783          	lw	a5,-52(s0)
     4f8:	0047d783          	lhu	a5,4(a5)
     4fc:	fcf41e23          	sh	a5,-36(s0)
     500:	fca45783          	lhu	a5,-54(s0)
     504:	fcf41923          	sh	a5,-46(s0)
     508:	fc041f23          	sh	zero,-34(s0)
     50c:	1780006f          	j	684 <core_bench_list+0x1c4>
     510:	fde45783          	lhu	a5,-34(s0)
     514:	0ff7f793          	andi	a5,a5,255
     518:	01079793          	slli	a5,a5,0x10
     51c:	4107d793          	srai	a5,a5,0x10
     520:	fcf41823          	sh	a5,-48(s0)
     524:	fd040793          	addi	a5,s0,-48
     528:	00078593          	mv	a1,a5
     52c:	fe442503          	lw	a0,-28(s0)
     530:	73c000ef          	jal	ra,c6c <core_list_find>
     534:	fca42a23          	sw	a0,-44(s0)
     538:	fe442503          	lw	a0,-28(s0)
     53c:	7d4000ef          	jal	ra,d10 <core_list_reverse>
     540:	fea42223          	sw	a0,-28(s0)
     544:	fd442783          	lw	a5,-44(s0)
     548:	04079863          	bnez	a5,598 <core_bench_list+0xd8>
     54c:	fea45783          	lhu	a5,-22(s0)
     550:	00178793          	addi	a5,a5,1
     554:	fef41523          	sh	a5,-22(s0)
     558:	fe442783          	lw	a5,-28(s0)
     55c:	0007a783          	lw	a5,0(a5)
     560:	0047a783          	lw	a5,4(a5)
     564:	00079783          	lh	a5,0(a5)
     568:	4087d793          	srai	a5,a5,0x8
     56c:	01079793          	slli	a5,a5,0x10
     570:	4107d793          	srai	a5,a5,0x10
     574:	01079793          	slli	a5,a5,0x10
     578:	0107d793          	srli	a5,a5,0x10
     57c:	0017f793          	andi	a5,a5,1
     580:	01079713          	slli	a4,a5,0x10
     584:	01075713          	srli	a4,a4,0x10
     588:	fee45783          	lhu	a5,-18(s0)
     58c:	00f707b3          	add	a5,a4,a5
     590:	fef41723          	sh	a5,-18(s0)
     594:	0a80006f          	j	63c <core_bench_list+0x17c>
     598:	fec45783          	lhu	a5,-20(s0)
     59c:	00178793          	addi	a5,a5,1
     5a0:	fef41623          	sh	a5,-20(s0)
     5a4:	fd442783          	lw	a5,-44(s0)
     5a8:	0047a783          	lw	a5,4(a5)
     5ac:	00079783          	lh	a5,0(a5)
     5b0:	01079793          	slli	a5,a5,0x10
     5b4:	0107d793          	srli	a5,a5,0x10
     5b8:	0017f793          	andi	a5,a5,1
     5bc:	02078e63          	beqz	a5,5f8 <core_bench_list+0x138>
     5c0:	fd442783          	lw	a5,-44(s0)
     5c4:	0047a783          	lw	a5,4(a5)
     5c8:	00079783          	lh	a5,0(a5)
     5cc:	4097d793          	srai	a5,a5,0x9
     5d0:	01079793          	slli	a5,a5,0x10
     5d4:	4107d793          	srai	a5,a5,0x10
     5d8:	01079793          	slli	a5,a5,0x10
     5dc:	0107d793          	srli	a5,a5,0x10
     5e0:	0017f793          	andi	a5,a5,1
     5e4:	01079713          	slli	a4,a5,0x10
     5e8:	01075713          	srli	a4,a4,0x10
     5ec:	fee45783          	lhu	a5,-18(s0)
     5f0:	00f707b3          	add	a5,a4,a5
     5f4:	fef41723          	sh	a5,-18(s0)
     5f8:	fd442783          	lw	a5,-44(s0)
     5fc:	0007a783          	lw	a5,0(a5)
     600:	02078e63          	beqz	a5,63c <core_bench_list+0x17c>
     604:	fd442783          	lw	a5,-44(s0)
     608:	0007a783          	lw	a5,0(a5)
     60c:	fef42023          	sw	a5,-32(s0)
     610:	fe042783          	lw	a5,-32(s0)
     614:	0007a703          	lw	a4,0(a5)
     618:	fd442783          	lw	a5,-44(s0)
     61c:	00e7a023          	sw	a4,0(a5)
     620:	fe442783          	lw	a5,-28(s0)
     624:	0007a703          	lw	a4,0(a5)
     628:	fe042783          	lw	a5,-32(s0)
     62c:	00e7a023          	sw	a4,0(a5)
     630:	fe442783          	lw	a5,-28(s0)
     634:	fe042703          	lw	a4,-32(s0)
     638:	00e7a023          	sw	a4,0(a5)
     63c:	fd241783          	lh	a5,-46(s0)
     640:	0207c463          	bltz	a5,668 <core_bench_list+0x1a8>
     644:	fd241783          	lh	a5,-46(s0)
     648:	01079793          	slli	a5,a5,0x10
     64c:	0107d793          	srli	a5,a5,0x10
     650:	00178793          	addi	a5,a5,1
     654:	01079793          	slli	a5,a5,0x10
     658:	0107d793          	srli	a5,a5,0x10
     65c:	01079793          	slli	a5,a5,0x10
     660:	4107d793          	srai	a5,a5,0x10
     664:	fcf41923          	sh	a5,-46(s0)
     668:	fde41783          	lh	a5,-34(s0)
     66c:	01079793          	slli	a5,a5,0x10
     670:	0107d793          	srli	a5,a5,0x10
     674:	00178793          	addi	a5,a5,1
     678:	01079793          	slli	a5,a5,0x10
     67c:	0107d793          	srli	a5,a5,0x10
     680:	fcf41f23          	sh	a5,-34(s0)
     684:	fde41703          	lh	a4,-34(s0)
     688:	fdc41783          	lh	a5,-36(s0)
     68c:	e8f742e3          	blt	a4,a5,510 <core_bench_list+0x50>
     690:	fec45783          	lhu	a5,-20(s0)
     694:	00279793          	slli	a5,a5,0x2
     698:	01079713          	slli	a4,a5,0x10
     69c:	01075713          	srli	a4,a4,0x10
     6a0:	fea45783          	lhu	a5,-22(s0)
     6a4:	40f707b3          	sub	a5,a4,a5
     6a8:	01079713          	slli	a4,a5,0x10
     6ac:	01075713          	srli	a4,a4,0x10
     6b0:	fee45783          	lhu	a5,-18(s0)
     6b4:	00f707b3          	add	a5,a4,a5
     6b8:	fef41723          	sh	a5,-18(s0)
     6bc:	fca41783          	lh	a5,-54(s0)
     6c0:	00f05c63          	blez	a5,6d8 <core_bench_list+0x218>
     6c4:	fcc42603          	lw	a2,-52(s0)
     6c8:	33000593          	li	a1,816
     6cc:	fe442503          	lw	a0,-28(s0)
     6d0:	69c000ef          	jal	ra,d6c <core_list_mergesort>
     6d4:	fea42223          	sw	a0,-28(s0)
     6d8:	fe442783          	lw	a5,-28(s0)
     6dc:	0007a783          	lw	a5,0(a5)
     6e0:	00078513          	mv	a0,a5
     6e4:	4a8000ef          	jal	ra,b8c <core_list_remove>
     6e8:	fca42c23          	sw	a0,-40(s0)
     6ec:	fd040793          	addi	a5,s0,-48
     6f0:	00078593          	mv	a1,a5
     6f4:	fe442503          	lw	a0,-28(s0)
     6f8:	574000ef          	jal	ra,c6c <core_list_find>
     6fc:	fea42023          	sw	a0,-32(s0)
     700:	fe042783          	lw	a5,-32(s0)
     704:	04079263          	bnez	a5,748 <core_bench_list+0x288>
     708:	fe442783          	lw	a5,-28(s0)
     70c:	0007a783          	lw	a5,0(a5)
     710:	fef42023          	sw	a5,-32(s0)
     714:	0340006f          	j	748 <core_bench_list+0x288>
     718:	fe442783          	lw	a5,-28(s0)
     71c:	0047a783          	lw	a5,4(a5)
     720:	00079783          	lh	a5,0(a5)
     724:	fee45703          	lhu	a4,-18(s0)
     728:	00070593          	mv	a1,a4
     72c:	00078513          	mv	a0,a5
     730:	73d020ef          	jal	ra,366c <crc16>
     734:	00050793          	mv	a5,a0
     738:	fef41723          	sh	a5,-18(s0)
     73c:	fe042783          	lw	a5,-32(s0)
     740:	0007a783          	lw	a5,0(a5)
     744:	fef42023          	sw	a5,-32(s0)
     748:	fe042783          	lw	a5,-32(s0)
     74c:	fc0796e3          	bnez	a5,718 <core_bench_list+0x258>
     750:	fe442783          	lw	a5,-28(s0)
     754:	0007a783          	lw	a5,0(a5)
     758:	00078593          	mv	a1,a5
     75c:	fd842503          	lw	a0,-40(s0)
     760:	4a0000ef          	jal	ra,c00 <core_list_undo_remove>
     764:	fca42c23          	sw	a0,-40(s0)
     768:	00000613          	li	a2,0
     76c:	39c00593          	li	a1,924
     770:	fe442503          	lw	a0,-28(s0)
     774:	5f8000ef          	jal	ra,d6c <core_list_mergesort>
     778:	fea42223          	sw	a0,-28(s0)
     77c:	fe442783          	lw	a5,-28(s0)
     780:	0007a783          	lw	a5,0(a5)
     784:	fef42023          	sw	a5,-32(s0)
     788:	0340006f          	j	7bc <core_bench_list+0x2fc>
     78c:	fe442783          	lw	a5,-28(s0)
     790:	0047a783          	lw	a5,4(a5)
     794:	00079783          	lh	a5,0(a5)
     798:	fee45703          	lhu	a4,-18(s0)
     79c:	00070593          	mv	a1,a4
     7a0:	00078513          	mv	a0,a5
     7a4:	6c9020ef          	jal	ra,366c <crc16>
     7a8:	00050793          	mv	a5,a0
     7ac:	fef41723          	sh	a5,-18(s0)
     7b0:	fe042783          	lw	a5,-32(s0)
     7b4:	0007a783          	lw	a5,0(a5)
     7b8:	fef42023          	sw	a5,-32(s0)
     7bc:	fe042783          	lw	a5,-32(s0)
     7c0:	fc0796e3          	bnez	a5,78c <core_bench_list+0x2cc>
     7c4:	fee45783          	lhu	a5,-18(s0)
     7c8:	00078513          	mv	a0,a5
     7cc:	03c12083          	lw	ra,60(sp)
     7d0:	03812403          	lw	s0,56(sp)
     7d4:	04010113          	addi	sp,sp,64
     7d8:	00008067          	ret

000007dc <core_list_init>:
     7dc:	fb010113          	addi	sp,sp,-80
     7e0:	04112623          	sw	ra,76(sp)
     7e4:	04812423          	sw	s0,72(sp)
     7e8:	05010413          	addi	s0,sp,80
     7ec:	faa42e23          	sw	a0,-68(s0)
     7f0:	fab42c23          	sw	a1,-72(s0)
     7f4:	00060793          	mv	a5,a2
     7f8:	faf41b23          	sh	a5,-74(s0)
     7fc:	01400793          	li	a5,20
     800:	fef42223          	sw	a5,-28(s0)
     804:	fe442583          	lw	a1,-28(s0)
     808:	fbc42503          	lw	a0,-68(s0)
     80c:	070040ef          	jal	ra,487c <__udivsi3>
     810:	00050793          	mv	a5,a0
     814:	ffe78793          	addi	a5,a5,-2
     818:	fef42023          	sw	a5,-32(s0)
     81c:	fb842703          	lw	a4,-72(s0)
     820:	fe042783          	lw	a5,-32(s0)
     824:	00379793          	slli	a5,a5,0x3
     828:	00f707b3          	add	a5,a4,a5
     82c:	fcf42e23          	sw	a5,-36(s0)
     830:	fdc42783          	lw	a5,-36(s0)
     834:	fcf42423          	sw	a5,-56(s0)
     838:	fc842703          	lw	a4,-56(s0)
     83c:	fe042783          	lw	a5,-32(s0)
     840:	00279793          	slli	a5,a5,0x2
     844:	00f707b3          	add	a5,a4,a5
     848:	fcf42c23          	sw	a5,-40(s0)
     84c:	fb842783          	lw	a5,-72(s0)
     850:	fcf42a23          	sw	a5,-44(s0)
     854:	fd442783          	lw	a5,-44(s0)
     858:	0007a023          	sw	zero,0(a5)
     85c:	fc842703          	lw	a4,-56(s0)
     860:	fd442783          	lw	a5,-44(s0)
     864:	00e7a223          	sw	a4,4(a5)
     868:	fd442783          	lw	a5,-44(s0)
     86c:	0047a783          	lw	a5,4(a5)
     870:	00079123          	sh	zero,2(a5)
     874:	fd442783          	lw	a5,-44(s0)
     878:	0047a783          	lw	a5,4(a5)
     87c:	ffff8737          	lui	a4,0xffff8
     880:	08070713          	addi	a4,a4,128 # ffff8080 <__BSS_END__+0xffff13b8>
     884:	00e79023          	sh	a4,0(a5)
     888:	fb842783          	lw	a5,-72(s0)
     88c:	00878793          	addi	a5,a5,8
     890:	faf42c23          	sw	a5,-72(s0)
     894:	fc842783          	lw	a5,-56(s0)
     898:	00478793          	addi	a5,a5,4
     89c:	fcf42423          	sw	a5,-56(s0)
     8a0:	ffff87b7          	lui	a5,0xffff8
     8a4:	fff7c793          	not	a5,a5
     8a8:	fcf41323          	sh	a5,-58(s0)
     8ac:	fff00793          	li	a5,-1
     8b0:	fcf41223          	sh	a5,-60(s0)
     8b4:	fc840693          	addi	a3,s0,-56
     8b8:	fb840613          	addi	a2,s0,-72
     8bc:	fc440593          	addi	a1,s0,-60
     8c0:	fd842783          	lw	a5,-40(s0)
     8c4:	fdc42703          	lw	a4,-36(s0)
     8c8:	fd442503          	lw	a0,-44(s0)
     8cc:	1d4000ef          	jal	ra,aa0 <core_list_insert_new>
     8d0:	fe042623          	sw	zero,-20(s0)
     8d4:	0a40006f          	j	978 <core_list_init+0x19c>
     8d8:	fec42783          	lw	a5,-20(s0)
     8dc:	01079713          	slli	a4,a5,0x10
     8e0:	01075713          	srli	a4,a4,0x10
     8e4:	fb645783          	lhu	a5,-74(s0)
     8e8:	00f747b3          	xor	a5,a4,a5
     8ec:	01079793          	slli	a5,a5,0x10
     8f0:	0107d793          	srli	a5,a5,0x10
     8f4:	00f7f793          	andi	a5,a5,15
     8f8:	fcf41823          	sh	a5,-48(s0)
     8fc:	fd045783          	lhu	a5,-48(s0)
     900:	00379793          	slli	a5,a5,0x3
     904:	01079713          	slli	a4,a5,0x10
     908:	01075713          	srli	a4,a4,0x10
     90c:	fec42783          	lw	a5,-20(s0)
     910:	01079793          	slli	a5,a5,0x10
     914:	0107d793          	srli	a5,a5,0x10
     918:	0077f793          	andi	a5,a5,7
     91c:	01079793          	slli	a5,a5,0x10
     920:	0107d793          	srli	a5,a5,0x10
     924:	00f767b3          	or	a5,a4,a5
     928:	fcf41723          	sh	a5,-50(s0)
     92c:	fce45783          	lhu	a5,-50(s0)
     930:	00879793          	slli	a5,a5,0x8
     934:	01079713          	slli	a4,a5,0x10
     938:	41075713          	srai	a4,a4,0x10
     93c:	fce41783          	lh	a5,-50(s0)
     940:	00f767b3          	or	a5,a4,a5
     944:	01079793          	slli	a5,a5,0x10
     948:	4107d793          	srai	a5,a5,0x10
     94c:	fcf41223          	sh	a5,-60(s0)
     950:	fc840693          	addi	a3,s0,-56
     954:	fb840613          	addi	a2,s0,-72
     958:	fc440593          	addi	a1,s0,-60
     95c:	fd842783          	lw	a5,-40(s0)
     960:	fdc42703          	lw	a4,-36(s0)
     964:	fd442503          	lw	a0,-44(s0)
     968:	138000ef          	jal	ra,aa0 <core_list_insert_new>
     96c:	fec42783          	lw	a5,-20(s0)
     970:	00178793          	addi	a5,a5,1 # ffff8001 <__BSS_END__+0xffff1339>
     974:	fef42623          	sw	a5,-20(s0)
     978:	fec42703          	lw	a4,-20(s0)
     97c:	fe042783          	lw	a5,-32(s0)
     980:	f4f76ce3          	bltu	a4,a5,8d8 <core_list_init+0xfc>
     984:	fd442783          	lw	a5,-44(s0)
     988:	0007a783          	lw	a5,0(a5)
     98c:	fef42423          	sw	a5,-24(s0)
     990:	00100793          	li	a5,1
     994:	fef42623          	sw	a5,-20(s0)
     998:	0d00006f          	j	a68 <core_list_init+0x28c>
     99c:	fe042783          	lw	a5,-32(s0)
     9a0:	00500593          	li	a1,5
     9a4:	00078513          	mv	a0,a5
     9a8:	6d5030ef          	jal	ra,487c <__udivsi3>
     9ac:	00050793          	mv	a5,a0
     9b0:	00078713          	mv	a4,a5
     9b4:	fec42783          	lw	a5,-20(s0)
     9b8:	02e7f463          	bgeu	a5,a4,9e0 <core_list_init+0x204>
     9bc:	fec42783          	lw	a5,-20(s0)
     9c0:	00178713          	addi	a4,a5,1
     9c4:	fee42623          	sw	a4,-20(s0)
     9c8:	fe842703          	lw	a4,-24(s0)
     9cc:	00472703          	lw	a4,4(a4)
     9d0:	01079793          	slli	a5,a5,0x10
     9d4:	4107d793          	srai	a5,a5,0x10
     9d8:	00f71123          	sh	a5,2(a4)
     9dc:	0800006f          	j	a5c <core_list_init+0x280>
     9e0:	fec42783          	lw	a5,-20(s0)
     9e4:	00178713          	addi	a4,a5,1
     9e8:	fee42623          	sw	a4,-20(s0)
     9ec:	01079713          	slli	a4,a5,0x10
     9f0:	01075713          	srli	a4,a4,0x10
     9f4:	fb645783          	lhu	a5,-74(s0)
     9f8:	00f747b3          	xor	a5,a4,a5
     9fc:	fcf41923          	sh	a5,-46(s0)
     a00:	fec42783          	lw	a5,-20(s0)
     a04:	01079793          	slli	a5,a5,0x10
     a08:	0107d793          	srli	a5,a5,0x10
     a0c:	00879793          	slli	a5,a5,0x8
     a10:	01079793          	slli	a5,a5,0x10
     a14:	0107d793          	srli	a5,a5,0x10
     a18:	7007f793          	andi	a5,a5,1792
     a1c:	01079713          	slli	a4,a5,0x10
     a20:	01075713          	srli	a4,a4,0x10
     a24:	fd245783          	lhu	a5,-46(s0)
     a28:	00f767b3          	or	a5,a4,a5
     a2c:	01079793          	slli	a5,a5,0x10
     a30:	0107d793          	srli	a5,a5,0x10
     a34:	01079693          	slli	a3,a5,0x10
     a38:	4106d693          	srai	a3,a3,0x10
     a3c:	fe842783          	lw	a5,-24(s0)
     a40:	0047a783          	lw	a5,4(a5)
     a44:	00004737          	lui	a4,0x4
     a48:	fff70713          	addi	a4,a4,-1 # 3fff <iaddr+0x173>
     a4c:	00e6f733          	and	a4,a3,a4
     a50:	01071713          	slli	a4,a4,0x10
     a54:	41075713          	srai	a4,a4,0x10
     a58:	00e79123          	sh	a4,2(a5)
     a5c:	fe842783          	lw	a5,-24(s0)
     a60:	0007a783          	lw	a5,0(a5)
     a64:	fef42423          	sw	a5,-24(s0)
     a68:	fe842783          	lw	a5,-24(s0)
     a6c:	0007a783          	lw	a5,0(a5)
     a70:	f20796e3          	bnez	a5,99c <core_list_init+0x1c0>
     a74:	00000613          	li	a2,0
     a78:	39c00593          	li	a1,924
     a7c:	fd442503          	lw	a0,-44(s0)
     a80:	2ec000ef          	jal	ra,d6c <core_list_mergesort>
     a84:	fca42a23          	sw	a0,-44(s0)
     a88:	fd442783          	lw	a5,-44(s0)
     a8c:	00078513          	mv	a0,a5
     a90:	04c12083          	lw	ra,76(sp)
     a94:	04812403          	lw	s0,72(sp)
     a98:	05010113          	addi	sp,sp,80
     a9c:	00008067          	ret

00000aa0 <core_list_insert_new>:
     aa0:	fc010113          	addi	sp,sp,-64
     aa4:	02112e23          	sw	ra,60(sp)
     aa8:	02812c23          	sw	s0,56(sp)
     aac:	04010413          	addi	s0,sp,64
     ab0:	fca42e23          	sw	a0,-36(s0)
     ab4:	fcb42c23          	sw	a1,-40(s0)
     ab8:	fcc42a23          	sw	a2,-44(s0)
     abc:	fcd42823          	sw	a3,-48(s0)
     ac0:	fce42623          	sw	a4,-52(s0)
     ac4:	fcf42423          	sw	a5,-56(s0)
     ac8:	fd442783          	lw	a5,-44(s0)
     acc:	0007a783          	lw	a5,0(a5)
     ad0:	00878793          	addi	a5,a5,8
     ad4:	fcc42703          	lw	a4,-52(s0)
     ad8:	00e7e663          	bltu	a5,a4,ae4 <core_list_insert_new+0x44>
     adc:	00000793          	li	a5,0
     ae0:	0980006f          	j	b78 <core_list_insert_new+0xd8>
     ae4:	fd042783          	lw	a5,-48(s0)
     ae8:	0007a783          	lw	a5,0(a5)
     aec:	00478793          	addi	a5,a5,4
     af0:	fc842703          	lw	a4,-56(s0)
     af4:	00e7e663          	bltu	a5,a4,b00 <core_list_insert_new+0x60>
     af8:	00000793          	li	a5,0
     afc:	07c0006f          	j	b78 <core_list_insert_new+0xd8>
     b00:	fd442783          	lw	a5,-44(s0)
     b04:	0007a783          	lw	a5,0(a5)
     b08:	fef42623          	sw	a5,-20(s0)
     b0c:	fd442783          	lw	a5,-44(s0)
     b10:	0007a783          	lw	a5,0(a5)
     b14:	00878713          	addi	a4,a5,8
     b18:	fd442783          	lw	a5,-44(s0)
     b1c:	00e7a023          	sw	a4,0(a5)
     b20:	fdc42783          	lw	a5,-36(s0)
     b24:	0007a703          	lw	a4,0(a5)
     b28:	fec42783          	lw	a5,-20(s0)
     b2c:	00e7a023          	sw	a4,0(a5)
     b30:	fdc42783          	lw	a5,-36(s0)
     b34:	fec42703          	lw	a4,-20(s0)
     b38:	00e7a023          	sw	a4,0(a5)
     b3c:	fd042783          	lw	a5,-48(s0)
     b40:	0007a703          	lw	a4,0(a5)
     b44:	fec42783          	lw	a5,-20(s0)
     b48:	00e7a223          	sw	a4,4(a5)
     b4c:	fd042783          	lw	a5,-48(s0)
     b50:	0007a783          	lw	a5,0(a5)
     b54:	00478713          	addi	a4,a5,4
     b58:	fd042783          	lw	a5,-48(s0)
     b5c:	00e7a023          	sw	a4,0(a5)
     b60:	fec42783          	lw	a5,-20(s0)
     b64:	0047a783          	lw	a5,4(a5)
     b68:	fd842583          	lw	a1,-40(s0)
     b6c:	00078513          	mv	a0,a5
     b70:	90dff0ef          	jal	ra,47c <copy_info>
     b74:	fec42783          	lw	a5,-20(s0)
     b78:	00078513          	mv	a0,a5
     b7c:	03c12083          	lw	ra,60(sp)
     b80:	03812403          	lw	s0,56(sp)
     b84:	04010113          	addi	sp,sp,64
     b88:	00008067          	ret

00000b8c <core_list_remove>:
     b8c:	fd010113          	addi	sp,sp,-48
     b90:	02812623          	sw	s0,44(sp)
     b94:	03010413          	addi	s0,sp,48
     b98:	fca42e23          	sw	a0,-36(s0)
     b9c:	fdc42783          	lw	a5,-36(s0)
     ba0:	0007a783          	lw	a5,0(a5)
     ba4:	fef42623          	sw	a5,-20(s0)
     ba8:	fdc42783          	lw	a5,-36(s0)
     bac:	0047a783          	lw	a5,4(a5)
     bb0:	fef42423          	sw	a5,-24(s0)
     bb4:	fec42783          	lw	a5,-20(s0)
     bb8:	0047a703          	lw	a4,4(a5)
     bbc:	fdc42783          	lw	a5,-36(s0)
     bc0:	00e7a223          	sw	a4,4(a5)
     bc4:	fec42783          	lw	a5,-20(s0)
     bc8:	fe842703          	lw	a4,-24(s0)
     bcc:	00e7a223          	sw	a4,4(a5)
     bd0:	fdc42783          	lw	a5,-36(s0)
     bd4:	0007a783          	lw	a5,0(a5)
     bd8:	0007a703          	lw	a4,0(a5)
     bdc:	fdc42783          	lw	a5,-36(s0)
     be0:	00e7a023          	sw	a4,0(a5)
     be4:	fec42783          	lw	a5,-20(s0)
     be8:	0007a023          	sw	zero,0(a5)
     bec:	fec42783          	lw	a5,-20(s0)
     bf0:	00078513          	mv	a0,a5
     bf4:	02c12403          	lw	s0,44(sp)
     bf8:	03010113          	addi	sp,sp,48
     bfc:	00008067          	ret

00000c00 <core_list_undo_remove>:
     c00:	fd010113          	addi	sp,sp,-48
     c04:	02812623          	sw	s0,44(sp)
     c08:	03010413          	addi	s0,sp,48
     c0c:	fca42e23          	sw	a0,-36(s0)
     c10:	fcb42c23          	sw	a1,-40(s0)
     c14:	fdc42783          	lw	a5,-36(s0)
     c18:	0047a783          	lw	a5,4(a5)
     c1c:	fef42623          	sw	a5,-20(s0)
     c20:	fd842783          	lw	a5,-40(s0)
     c24:	0047a703          	lw	a4,4(a5)
     c28:	fdc42783          	lw	a5,-36(s0)
     c2c:	00e7a223          	sw	a4,4(a5)
     c30:	fd842783          	lw	a5,-40(s0)
     c34:	fec42703          	lw	a4,-20(s0)
     c38:	00e7a223          	sw	a4,4(a5)
     c3c:	fd842783          	lw	a5,-40(s0)
     c40:	0007a703          	lw	a4,0(a5)
     c44:	fdc42783          	lw	a5,-36(s0)
     c48:	00e7a023          	sw	a4,0(a5)
     c4c:	fd842783          	lw	a5,-40(s0)
     c50:	fdc42703          	lw	a4,-36(s0)
     c54:	00e7a023          	sw	a4,0(a5)
     c58:	fdc42783          	lw	a5,-36(s0)
     c5c:	00078513          	mv	a0,a5
     c60:	02c12403          	lw	s0,44(sp)
     c64:	03010113          	addi	sp,sp,48
     c68:	00008067          	ret

00000c6c <core_list_find>:
     c6c:	fe010113          	addi	sp,sp,-32
     c70:	00812e23          	sw	s0,28(sp)
     c74:	02010413          	addi	s0,sp,32
     c78:	fea42623          	sw	a0,-20(s0)
     c7c:	feb42423          	sw	a1,-24(s0)
     c80:	fe842783          	lw	a5,-24(s0)
     c84:	00279783          	lh	a5,2(a5)
     c88:	0407c463          	bltz	a5,cd0 <core_list_find+0x64>
     c8c:	0100006f          	j	c9c <core_list_find+0x30>
     c90:	fec42783          	lw	a5,-20(s0)
     c94:	0007a783          	lw	a5,0(a5)
     c98:	fef42623          	sw	a5,-20(s0)
     c9c:	fec42783          	lw	a5,-20(s0)
     ca0:	00078e63          	beqz	a5,cbc <core_list_find+0x50>
     ca4:	fec42783          	lw	a5,-20(s0)
     ca8:	0047a783          	lw	a5,4(a5)
     cac:	00279703          	lh	a4,2(a5)
     cb0:	fe842783          	lw	a5,-24(s0)
     cb4:	00279783          	lh	a5,2(a5)
     cb8:	fcf71ce3          	bne	a4,a5,c90 <core_list_find+0x24>
     cbc:	fec42783          	lw	a5,-20(s0)
     cc0:	0400006f          	j	d00 <core_list_find+0x94>
     cc4:	fec42783          	lw	a5,-20(s0)
     cc8:	0007a783          	lw	a5,0(a5)
     ccc:	fef42623          	sw	a5,-20(s0)
     cd0:	fec42783          	lw	a5,-20(s0)
     cd4:	02078463          	beqz	a5,cfc <core_list_find+0x90>
     cd8:	fec42783          	lw	a5,-20(s0)
     cdc:	0047a783          	lw	a5,4(a5)
     ce0:	00079783          	lh	a5,0(a5)
     ce4:	01079793          	slli	a5,a5,0x10
     ce8:	0107d793          	srli	a5,a5,0x10
     cec:	0ff7f793          	andi	a5,a5,255
     cf0:	fe842703          	lw	a4,-24(s0)
     cf4:	00071703          	lh	a4,0(a4)
     cf8:	fce796e3          	bne	a5,a4,cc4 <core_list_find+0x58>
     cfc:	fec42783          	lw	a5,-20(s0)
     d00:	00078513          	mv	a0,a5
     d04:	01c12403          	lw	s0,28(sp)
     d08:	02010113          	addi	sp,sp,32
     d0c:	00008067          	ret

00000d10 <core_list_reverse>:
     d10:	fd010113          	addi	sp,sp,-48
     d14:	02812623          	sw	s0,44(sp)
     d18:	03010413          	addi	s0,sp,48
     d1c:	fca42e23          	sw	a0,-36(s0)
     d20:	fe042623          	sw	zero,-20(s0)
     d24:	02c0006f          	j	d50 <core_list_reverse+0x40>
     d28:	fdc42783          	lw	a5,-36(s0)
     d2c:	0007a783          	lw	a5,0(a5)
     d30:	fef42423          	sw	a5,-24(s0)
     d34:	fdc42783          	lw	a5,-36(s0)
     d38:	fec42703          	lw	a4,-20(s0)
     d3c:	00e7a023          	sw	a4,0(a5)
     d40:	fdc42783          	lw	a5,-36(s0)
     d44:	fef42623          	sw	a5,-20(s0)
     d48:	fe842783          	lw	a5,-24(s0)
     d4c:	fcf42e23          	sw	a5,-36(s0)
     d50:	fdc42783          	lw	a5,-36(s0)
     d54:	fc079ae3          	bnez	a5,d28 <core_list_reverse+0x18>
     d58:	fec42783          	lw	a5,-20(s0)
     d5c:	00078513          	mv	a0,a5
     d60:	02c12403          	lw	s0,44(sp)
     d64:	03010113          	addi	sp,sp,48
     d68:	00008067          	ret

00000d6c <core_list_mergesort>:
     d6c:	fb010113          	addi	sp,sp,-80
     d70:	04112623          	sw	ra,76(sp)
     d74:	04812423          	sw	s0,72(sp)
     d78:	05010413          	addi	s0,sp,80
     d7c:	faa42e23          	sw	a0,-68(s0)
     d80:	fab42c23          	sw	a1,-72(s0)
     d84:	fac42a23          	sw	a2,-76(s0)
     d88:	00100793          	li	a5,1
     d8c:	fcf42e23          	sw	a5,-36(s0)
     d90:	fbc42783          	lw	a5,-68(s0)
     d94:	fef42623          	sw	a5,-20(s0)
     d98:	fa042e23          	sw	zero,-68(s0)
     d9c:	fe042023          	sw	zero,-32(s0)
     da0:	fc042c23          	sw	zero,-40(s0)
     da4:	1880006f          	j	f2c <core_list_mergesort+0x1c0>
     da8:	fd842783          	lw	a5,-40(s0)
     dac:	00178793          	addi	a5,a5,1
     db0:	fcf42c23          	sw	a5,-40(s0)
     db4:	fec42783          	lw	a5,-20(s0)
     db8:	fef42423          	sw	a5,-24(s0)
     dbc:	fc042a23          	sw	zero,-44(s0)
     dc0:	fc042623          	sw	zero,-52(s0)
     dc4:	0300006f          	j	df4 <core_list_mergesort+0x88>
     dc8:	fd442783          	lw	a5,-44(s0)
     dcc:	00178793          	addi	a5,a5,1
     dd0:	fcf42a23          	sw	a5,-44(s0)
     dd4:	fe842783          	lw	a5,-24(s0)
     dd8:	0007a783          	lw	a5,0(a5)
     ddc:	fef42423          	sw	a5,-24(s0)
     de0:	fe842783          	lw	a5,-24(s0)
     de4:	02078063          	beqz	a5,e04 <core_list_mergesort+0x98>
     de8:	fcc42783          	lw	a5,-52(s0)
     dec:	00178793          	addi	a5,a5,1
     df0:	fcf42623          	sw	a5,-52(s0)
     df4:	fcc42703          	lw	a4,-52(s0)
     df8:	fdc42783          	lw	a5,-36(s0)
     dfc:	fcf746e3          	blt	a4,a5,dc8 <core_list_mergesort+0x5c>
     e00:	0080006f          	j	e08 <core_list_mergesort+0x9c>
     e04:	00000013          	nop
     e08:	fdc42783          	lw	a5,-36(s0)
     e0c:	fcf42823          	sw	a5,-48(s0)
     e10:	0fc0006f          	j	f0c <core_list_mergesort+0x1a0>
     e14:	fd442783          	lw	a5,-44(s0)
     e18:	02079463          	bnez	a5,e40 <core_list_mergesort+0xd4>
     e1c:	fe842783          	lw	a5,-24(s0)
     e20:	fef42223          	sw	a5,-28(s0)
     e24:	fe842783          	lw	a5,-24(s0)
     e28:	0007a783          	lw	a5,0(a5)
     e2c:	fef42423          	sw	a5,-24(s0)
     e30:	fd042783          	lw	a5,-48(s0)
     e34:	fff78793          	addi	a5,a5,-1
     e38:	fcf42823          	sw	a5,-48(s0)
     e3c:	0a80006f          	j	ee4 <core_list_mergesort+0x178>
     e40:	fd042783          	lw	a5,-48(s0)
     e44:	00078663          	beqz	a5,e50 <core_list_mergesort+0xe4>
     e48:	fe842783          	lw	a5,-24(s0)
     e4c:	02079463          	bnez	a5,e74 <core_list_mergesort+0x108>
     e50:	fec42783          	lw	a5,-20(s0)
     e54:	fef42223          	sw	a5,-28(s0)
     e58:	fec42783          	lw	a5,-20(s0)
     e5c:	0007a783          	lw	a5,0(a5)
     e60:	fef42623          	sw	a5,-20(s0)
     e64:	fd442783          	lw	a5,-44(s0)
     e68:	fff78793          	addi	a5,a5,-1
     e6c:	fcf42a23          	sw	a5,-44(s0)
     e70:	0740006f          	j	ee4 <core_list_mergesort+0x178>
     e74:	fec42783          	lw	a5,-20(s0)
     e78:	0047a703          	lw	a4,4(a5)
     e7c:	fe842783          	lw	a5,-24(s0)
     e80:	0047a783          	lw	a5,4(a5)
     e84:	fb842683          	lw	a3,-72(s0)
     e88:	fb442603          	lw	a2,-76(s0)
     e8c:	00078593          	mv	a1,a5
     e90:	00070513          	mv	a0,a4
     e94:	000680e7          	jalr	a3
     e98:	00050793          	mv	a5,a0
     e9c:	02f04463          	bgtz	a5,ec4 <core_list_mergesort+0x158>
     ea0:	fec42783          	lw	a5,-20(s0)
     ea4:	fef42223          	sw	a5,-28(s0)
     ea8:	fec42783          	lw	a5,-20(s0)
     eac:	0007a783          	lw	a5,0(a5)
     eb0:	fef42623          	sw	a5,-20(s0)
     eb4:	fd442783          	lw	a5,-44(s0)
     eb8:	fff78793          	addi	a5,a5,-1
     ebc:	fcf42a23          	sw	a5,-44(s0)
     ec0:	0240006f          	j	ee4 <core_list_mergesort+0x178>
     ec4:	fe842783          	lw	a5,-24(s0)
     ec8:	fef42223          	sw	a5,-28(s0)
     ecc:	fe842783          	lw	a5,-24(s0)
     ed0:	0007a783          	lw	a5,0(a5)
     ed4:	fef42423          	sw	a5,-24(s0)
     ed8:	fd042783          	lw	a5,-48(s0)
     edc:	fff78793          	addi	a5,a5,-1
     ee0:	fcf42823          	sw	a5,-48(s0)
     ee4:	fe042783          	lw	a5,-32(s0)
     ee8:	00078a63          	beqz	a5,efc <core_list_mergesort+0x190>
     eec:	fe042783          	lw	a5,-32(s0)
     ef0:	fe442703          	lw	a4,-28(s0)
     ef4:	00e7a023          	sw	a4,0(a5)
     ef8:	00c0006f          	j	f04 <core_list_mergesort+0x198>
     efc:	fe442783          	lw	a5,-28(s0)
     f00:	faf42e23          	sw	a5,-68(s0)
     f04:	fe442783          	lw	a5,-28(s0)
     f08:	fef42023          	sw	a5,-32(s0)
     f0c:	fd442783          	lw	a5,-44(s0)
     f10:	f0f042e3          	bgtz	a5,e14 <core_list_mergesort+0xa8>
     f14:	fd042783          	lw	a5,-48(s0)
     f18:	00f05663          	blez	a5,f24 <core_list_mergesort+0x1b8>
     f1c:	fe842783          	lw	a5,-24(s0)
     f20:	ee079ae3          	bnez	a5,e14 <core_list_mergesort+0xa8>
     f24:	fe842783          	lw	a5,-24(s0)
     f28:	fef42623          	sw	a5,-20(s0)
     f2c:	fec42783          	lw	a5,-20(s0)
     f30:	e6079ce3          	bnez	a5,da8 <core_list_mergesort+0x3c>
     f34:	fe042783          	lw	a5,-32(s0)
     f38:	0007a023          	sw	zero,0(a5)
     f3c:	fd842703          	lw	a4,-40(s0)
     f40:	00100793          	li	a5,1
     f44:	00e7c663          	blt	a5,a4,f50 <core_list_mergesort+0x1e4>
     f48:	fbc42783          	lw	a5,-68(s0)
     f4c:	0140006f          	j	f60 <core_list_mergesort+0x1f4>
     f50:	fdc42783          	lw	a5,-36(s0)
     f54:	00179793          	slli	a5,a5,0x1
     f58:	fcf42e23          	sw	a5,-36(s0)
     f5c:	e35ff06f          	j	d90 <core_list_mergesort+0x24>
     f60:	00078513          	mv	a0,a5
     f64:	04c12083          	lw	ra,76(sp)
     f68:	04812403          	lw	s0,72(sp)
     f6c:	05010113          	addi	sp,sp,80
     f70:	00008067          	ret

00000f74 <iterate>:
     f74:	fd010113          	addi	sp,sp,-48
     f78:	02112623          	sw	ra,44(sp)
     f7c:	02812423          	sw	s0,40(sp)
     f80:	03010413          	addi	s0,sp,48
     f84:	fca42e23          	sw	a0,-36(s0)
     f88:	fdc42783          	lw	a5,-36(s0)
     f8c:	fef42423          	sw	a5,-24(s0)
     f90:	fe842783          	lw	a5,-24(s0)
     f94:	01c7a783          	lw	a5,28(a5)
     f98:	fef42223          	sw	a5,-28(s0)
     f9c:	fe842783          	lw	a5,-24(s0)
     fa0:	02079c23          	sh	zero,56(a5)
     fa4:	fe842783          	lw	a5,-24(s0)
     fa8:	02079d23          	sh	zero,58(a5)
     fac:	fe842783          	lw	a5,-24(s0)
     fb0:	02079e23          	sh	zero,60(a5)
     fb4:	fe842783          	lw	a5,-24(s0)
     fb8:	02079f23          	sh	zero,62(a5)
     fbc:	fe042623          	sw	zero,-20(s0)
     fc0:	0a00006f          	j	1060 <iterate+0xec>
     fc4:	00100593          	li	a1,1
     fc8:	fe842503          	lw	a0,-24(s0)
     fcc:	cf4ff0ef          	jal	ra,4c0 <core_bench_list>
     fd0:	00050793          	mv	a5,a0
     fd4:	fef41123          	sh	a5,-30(s0)
     fd8:	fe842783          	lw	a5,-24(s0)
     fdc:	0387d703          	lhu	a4,56(a5)
     fe0:	fe245783          	lhu	a5,-30(s0)
     fe4:	00070593          	mv	a1,a4
     fe8:	00078513          	mv	a0,a5
     fec:	578020ef          	jal	ra,3564 <crcu16>
     ff0:	00050793          	mv	a5,a0
     ff4:	00078713          	mv	a4,a5
     ff8:	fe842783          	lw	a5,-24(s0)
     ffc:	02e79c23          	sh	a4,56(a5)
    1000:	fff00593          	li	a1,-1
    1004:	fe842503          	lw	a0,-24(s0)
    1008:	cb8ff0ef          	jal	ra,4c0 <core_bench_list>
    100c:	00050793          	mv	a5,a0
    1010:	fef41123          	sh	a5,-30(s0)
    1014:	fe842783          	lw	a5,-24(s0)
    1018:	0387d703          	lhu	a4,56(a5)
    101c:	fe245783          	lhu	a5,-30(s0)
    1020:	00070593          	mv	a1,a4
    1024:	00078513          	mv	a0,a5
    1028:	53c020ef          	jal	ra,3564 <crcu16>
    102c:	00050793          	mv	a5,a0
    1030:	00078713          	mv	a4,a5
    1034:	fe842783          	lw	a5,-24(s0)
    1038:	02e79c23          	sh	a4,56(a5)
    103c:	fec42783          	lw	a5,-20(s0)
    1040:	00079a63          	bnez	a5,1054 <iterate+0xe0>
    1044:	fe842783          	lw	a5,-24(s0)
    1048:	0387d703          	lhu	a4,56(a5)
    104c:	fe842783          	lw	a5,-24(s0)
    1050:	02e79d23          	sh	a4,58(a5)
    1054:	fec42783          	lw	a5,-20(s0)
    1058:	00178793          	addi	a5,a5,1
    105c:	fef42623          	sw	a5,-20(s0)
    1060:	fec42703          	lw	a4,-20(s0)
    1064:	fe442783          	lw	a5,-28(s0)
    1068:	f4f76ee3          	bltu	a4,a5,fc4 <iterate+0x50>
    106c:	00000793          	li	a5,0
    1070:	00078513          	mv	a0,a5
    1074:	02c12083          	lw	ra,44(sp)
    1078:	02812403          	lw	s0,40(sp)
    107c:	03010113          	addi	sp,sp,48
    1080:	00008067          	ret

00001084 <main>:
    1084:	f8010113          	addi	sp,sp,-128
    1088:	06112e23          	sw	ra,124(sp)
    108c:	06812c23          	sw	s0,120(sp)
    1090:	06912a23          	sw	s1,116(sp)
    1094:	08010413          	addi	s0,sp,128
    1098:	fc042623          	sw	zero,-52(s0)
    109c:	fe041623          	sh	zero,-20(s0)
    10a0:	fe041523          	sh	zero,-22(s0)
    10a4:	fff00793          	li	a5,-1
    10a8:	fef41423          	sh	a5,-24(s0)
    10ac:	fe041323          	sh	zero,-26(s0)
    10b0:	fc041b23          	sh	zero,-42(s0)
    10b4:	fc840693          	addi	a3,s0,-56
    10b8:	fcc40713          	addi	a4,s0,-52
    10bc:	f8440793          	addi	a5,s0,-124
    10c0:	04278793          	addi	a5,a5,66
    10c4:	00068613          	mv	a2,a3
    10c8:	00070593          	mv	a1,a4
    10cc:	00078513          	mv	a0,a5
    10d0:	72c020ef          	jal	ra,37fc <portable_init>
    10d4:	00100513          	li	a0,1
    10d8:	2fc020ef          	jal	ra,33d4 <get_seed_32>
    10dc:	00050793          	mv	a5,a0
    10e0:	01079793          	slli	a5,a5,0x10
    10e4:	4107d793          	srai	a5,a5,0x10
    10e8:	f8f41223          	sh	a5,-124(s0)
    10ec:	00200513          	li	a0,2
    10f0:	2e4020ef          	jal	ra,33d4 <get_seed_32>
    10f4:	00050793          	mv	a5,a0
    10f8:	01079793          	slli	a5,a5,0x10
    10fc:	4107d793          	srai	a5,a5,0x10
    1100:	f8f41323          	sh	a5,-122(s0)
    1104:	00300513          	li	a0,3
    1108:	2cc020ef          	jal	ra,33d4 <get_seed_32>
    110c:	00050793          	mv	a5,a0
    1110:	01079793          	slli	a5,a5,0x10
    1114:	4107d793          	srai	a5,a5,0x10
    1118:	f8f41423          	sh	a5,-120(s0)
    111c:	00400513          	li	a0,4
    1120:	2b4020ef          	jal	ra,33d4 <get_seed_32>
    1124:	00050793          	mv	a5,a0
    1128:	faf42023          	sw	a5,-96(s0)
    112c:	00500513          	li	a0,5
    1130:	2a4020ef          	jal	ra,33d4 <get_seed_32>
    1134:	00050793          	mv	a5,a0
    1138:	faf42223          	sw	a5,-92(s0)
    113c:	fa442783          	lw	a5,-92(s0)
    1140:	00079663          	bnez	a5,114c <main+0xc8>
    1144:	00700793          	li	a5,7
    1148:	faf42223          	sw	a5,-92(s0)
    114c:	f8441783          	lh	a5,-124(s0)
    1150:	02079263          	bnez	a5,1174 <main+0xf0>
    1154:	f8641783          	lh	a5,-122(s0)
    1158:	00079e63          	bnez	a5,1174 <main+0xf0>
    115c:	f8841783          	lh	a5,-120(s0)
    1160:	00079a63          	bnez	a5,1174 <main+0xf0>
    1164:	f8041223          	sh	zero,-124(s0)
    1168:	f8041323          	sh	zero,-122(s0)
    116c:	06600793          	li	a5,102
    1170:	f8f41423          	sh	a5,-120(s0)
    1174:	f8441703          	lh	a4,-124(s0)
    1178:	00100793          	li	a5,1
    117c:	02f71a63          	bne	a4,a5,11b0 <main+0x12c>
    1180:	f8641783          	lh	a5,-122(s0)
    1184:	02079663          	bnez	a5,11b0 <main+0x12c>
    1188:	f8841783          	lh	a5,-120(s0)
    118c:	02079263          	bnez	a5,11b0 <main+0x12c>
    1190:	000037b7          	lui	a5,0x3
    1194:	41578793          	addi	a5,a5,1045 # 3415 <get_seed_32+0x41>
    1198:	f8f41223          	sh	a5,-124(s0)
    119c:	000037b7          	lui	a5,0x3
    11a0:	41578793          	addi	a5,a5,1045 # 3415 <get_seed_32+0x41>
    11a4:	f8f41323          	sh	a5,-122(s0)
    11a8:	06600793          	li	a5,102
    11ac:	f8f41423          	sh	a5,-120(s0)
    11b0:	000067b7          	lui	a5,0x6
    11b4:	4f078793          	addi	a5,a5,1264 # 64f0 <static_memblk>
    11b8:	f8f42623          	sw	a5,-116(s0)
    11bc:	7d000793          	li	a5,2000
    11c0:	f8f42e23          	sw	a5,-100(s0)
    11c4:	fc041223          	sh	zero,-60(s0)
    11c8:	fe041723          	sh	zero,-18(s0)
    11cc:	0380006f          	j	1204 <main+0x180>
    11d0:	fee45783          	lhu	a5,-18(s0)
    11d4:	00100713          	li	a4,1
    11d8:	00f717b3          	sll	a5,a4,a5
    11dc:	00078713          	mv	a4,a5
    11e0:	fa442783          	lw	a5,-92(s0)
    11e4:	00f777b3          	and	a5,a4,a5
    11e8:	00078863          	beqz	a5,11f8 <main+0x174>
    11ec:	fea45783          	lhu	a5,-22(s0)
    11f0:	00178793          	addi	a5,a5,1
    11f4:	fef41523          	sh	a5,-22(s0)
    11f8:	fee45783          	lhu	a5,-18(s0)
    11fc:	00178793          	addi	a5,a5,1
    1200:	fef41723          	sh	a5,-18(s0)
    1204:	fee45703          	lhu	a4,-18(s0)
    1208:	00200793          	li	a5,2
    120c:	fce7f2e3          	bgeu	a5,a4,11d0 <main+0x14c>
    1210:	fe041723          	sh	zero,-18(s0)
    1214:	0680006f          	j	127c <main+0x1f8>
    1218:	fee45703          	lhu	a4,-18(s0)
    121c:	00070793          	mv	a5,a4
    1220:	00479793          	slli	a5,a5,0x4
    1224:	00e787b3          	add	a5,a5,a4
    1228:	00279793          	slli	a5,a5,0x2
    122c:	ff040713          	addi	a4,s0,-16
    1230:	00f707b3          	add	a5,a4,a5
    1234:	fac7a783          	lw	a5,-84(a5)
    1238:	fea45703          	lhu	a4,-22(s0)
    123c:	fee45483          	lhu	s1,-18(s0)
    1240:	00070593          	mv	a1,a4
    1244:	00078513          	mv	a0,a5
    1248:	634030ef          	jal	ra,487c <__udivsi3>
    124c:	00050793          	mv	a5,a0
    1250:	00078713          	mv	a4,a5
    1254:	00048793          	mv	a5,s1
    1258:	00479793          	slli	a5,a5,0x4
    125c:	009787b3          	add	a5,a5,s1
    1260:	00279793          	slli	a5,a5,0x2
    1264:	ff040693          	addi	a3,s0,-16
    1268:	00f687b3          	add	a5,a3,a5
    126c:	fae7a623          	sw	a4,-84(a5)
    1270:	fee45783          	lhu	a5,-18(s0)
    1274:	00178793          	addi	a5,a5,1
    1278:	fef41723          	sh	a5,-18(s0)
    127c:	fee45783          	lhu	a5,-18(s0)
    1280:	f8078ce3          	beqz	a5,1218 <main+0x194>
    1284:	fe041723          	sh	zero,-18(s0)
    1288:	0c00006f          	j	1348 <main+0x2c4>
    128c:	fee45783          	lhu	a5,-18(s0)
    1290:	00100713          	li	a4,1
    1294:	00f717b3          	sll	a5,a4,a5
    1298:	00078713          	mv	a4,a5
    129c:	fa442783          	lw	a5,-92(s0)
    12a0:	00f777b3          	and	a5,a4,a5
    12a4:	08078c63          	beqz	a5,133c <main+0x2b8>
    12a8:	fe042023          	sw	zero,-32(s0)
    12ac:	07c0006f          	j	1328 <main+0x2a4>
    12b0:	fe042703          	lw	a4,-32(s0)
    12b4:	00070793          	mv	a5,a4
    12b8:	00479793          	slli	a5,a5,0x4
    12bc:	00e787b3          	add	a5,a5,a4
    12c0:	00279793          	slli	a5,a5,0x2
    12c4:	ff040713          	addi	a4,s0,-16
    12c8:	00f707b3          	add	a5,a4,a5
    12cc:	f9c7a483          	lw	s1,-100(a5)
    12d0:	f9c42783          	lw	a5,-100(s0)
    12d4:	fec45703          	lhu	a4,-20(s0)
    12d8:	00070593          	mv	a1,a4
    12dc:	00078513          	mv	a0,a5
    12e0:	570030ef          	jal	ra,4850 <__mulsi3>
    12e4:	00050793          	mv	a5,a0
    12e8:	00078713          	mv	a4,a5
    12ec:	fee45783          	lhu	a5,-18(s0)
    12f0:	00178613          	addi	a2,a5,1
    12f4:	00e486b3          	add	a3,s1,a4
    12f8:	fe042703          	lw	a4,-32(s0)
    12fc:	00070793          	mv	a5,a4
    1300:	00479793          	slli	a5,a5,0x4
    1304:	00e787b3          	add	a5,a5,a4
    1308:	00c787b3          	add	a5,a5,a2
    130c:	00279793          	slli	a5,a5,0x2
    1310:	ff040713          	addi	a4,s0,-16
    1314:	00f707b3          	add	a5,a4,a5
    1318:	f8d7ae23          	sw	a3,-100(a5)
    131c:	fe042783          	lw	a5,-32(s0)
    1320:	00178793          	addi	a5,a5,1
    1324:	fef42023          	sw	a5,-32(s0)
    1328:	fe042783          	lw	a5,-32(s0)
    132c:	f80782e3          	beqz	a5,12b0 <main+0x22c>
    1330:	fec45783          	lhu	a5,-20(s0)
    1334:	00178793          	addi	a5,a5,1
    1338:	fef41623          	sh	a5,-20(s0)
    133c:	fee45783          	lhu	a5,-18(s0)
    1340:	00178793          	addi	a5,a5,1
    1344:	fef41723          	sh	a5,-18(s0)
    1348:	fee45703          	lhu	a4,-18(s0)
    134c:	00200793          	li	a5,2
    1350:	f2e7fee3          	bgeu	a5,a4,128c <main+0x208>
    1354:	fe041723          	sh	zero,-18(s0)
    1358:	1e80006f          	j	1540 <main+0x4bc>
    135c:	fee45703          	lhu	a4,-18(s0)
    1360:	00070793          	mv	a5,a4
    1364:	00479793          	slli	a5,a5,0x4
    1368:	00e787b3          	add	a5,a5,a4
    136c:	00279793          	slli	a5,a5,0x2
    1370:	ff040713          	addi	a4,s0,-16
    1374:	00f707b3          	add	a5,a4,a5
    1378:	fb47a783          	lw	a5,-76(a5)
    137c:	0017f793          	andi	a5,a5,1
    1380:	06078c63          	beqz	a5,13f8 <main+0x374>
    1384:	f9c42683          	lw	a3,-100(s0)
    1388:	fee45703          	lhu	a4,-18(s0)
    138c:	00070793          	mv	a5,a4
    1390:	00479793          	slli	a5,a5,0x4
    1394:	00e787b3          	add	a5,a5,a4
    1398:	00279793          	slli	a5,a5,0x2
    139c:	ff040713          	addi	a4,s0,-16
    13a0:	00f707b3          	add	a5,a4,a5
    13a4:	fa07a583          	lw	a1,-96(a5)
    13a8:	fee45703          	lhu	a4,-18(s0)
    13ac:	00070793          	mv	a5,a4
    13b0:	00479793          	slli	a5,a5,0x4
    13b4:	00e787b3          	add	a5,a5,a4
    13b8:	00279793          	slli	a5,a5,0x2
    13bc:	ff040713          	addi	a4,s0,-16
    13c0:	00f707b3          	add	a5,a4,a5
    13c4:	f9479783          	lh	a5,-108(a5)
    13c8:	fee45483          	lhu	s1,-18(s0)
    13cc:	00078613          	mv	a2,a5
    13d0:	00068513          	mv	a0,a3
    13d4:	c08ff0ef          	jal	ra,7dc <core_list_init>
    13d8:	00050713          	mv	a4,a0
    13dc:	00048793          	mv	a5,s1
    13e0:	00479793          	slli	a5,a5,0x4
    13e4:	009787b3          	add	a5,a5,s1
    13e8:	00279793          	slli	a5,a5,0x2
    13ec:	ff040693          	addi	a3,s0,-16
    13f0:	00f687b3          	add	a5,a3,a5
    13f4:	fae7ac23          	sw	a4,-72(a5)
    13f8:	fee45703          	lhu	a4,-18(s0)
    13fc:	00070793          	mv	a5,a4
    1400:	00479793          	slli	a5,a5,0x4
    1404:	00e787b3          	add	a5,a5,a4
    1408:	00279793          	slli	a5,a5,0x2
    140c:	ff040713          	addi	a4,s0,-16
    1410:	00f707b3          	add	a5,a4,a5
    1414:	fb47a783          	lw	a5,-76(a5)
    1418:	0027f793          	andi	a5,a5,2
    141c:	0a078063          	beqz	a5,14bc <main+0x438>
    1420:	f9c42503          	lw	a0,-100(s0)
    1424:	fee45703          	lhu	a4,-18(s0)
    1428:	00070793          	mv	a5,a4
    142c:	00479793          	slli	a5,a5,0x4
    1430:	00e787b3          	add	a5,a5,a4
    1434:	00279793          	slli	a5,a5,0x2
    1438:	ff040713          	addi	a4,s0,-16
    143c:	00f707b3          	add	a5,a4,a5
    1440:	fa47a583          	lw	a1,-92(a5)
    1444:	fee45703          	lhu	a4,-18(s0)
    1448:	00070793          	mv	a5,a4
    144c:	00479793          	slli	a5,a5,0x4
    1450:	00e787b3          	add	a5,a5,a4
    1454:	00279793          	slli	a5,a5,0x2
    1458:	ff040713          	addi	a4,s0,-16
    145c:	00f707b3          	add	a5,a4,a5
    1460:	f9479783          	lh	a5,-108(a5)
    1464:	00078693          	mv	a3,a5
    1468:	fee45703          	lhu	a4,-18(s0)
    146c:	00070793          	mv	a5,a4
    1470:	00479793          	slli	a5,a5,0x4
    1474:	00e787b3          	add	a5,a5,a4
    1478:	00279793          	slli	a5,a5,0x2
    147c:	ff040713          	addi	a4,s0,-16
    1480:	00f707b3          	add	a5,a4,a5
    1484:	f9679783          	lh	a5,-106(a5)
    1488:	01079793          	slli	a5,a5,0x10
    148c:	00f6e633          	or	a2,a3,a5
    1490:	fee45703          	lhu	a4,-18(s0)
    1494:	f8440693          	addi	a3,s0,-124
    1498:	00070793          	mv	a5,a4
    149c:	00479793          	slli	a5,a5,0x4
    14a0:	00e787b3          	add	a5,a5,a4
    14a4:	00279793          	slli	a5,a5,0x2
    14a8:	02078793          	addi	a5,a5,32
    14ac:	00f687b3          	add	a5,a3,a5
    14b0:	00878793          	addi	a5,a5,8
    14b4:	00078693          	mv	a3,a5
    14b8:	411000ef          	jal	ra,20c8 <core_init_matrix>
    14bc:	fee45703          	lhu	a4,-18(s0)
    14c0:	00070793          	mv	a5,a4
    14c4:	00479793          	slli	a5,a5,0x4
    14c8:	00e787b3          	add	a5,a5,a4
    14cc:	00279793          	slli	a5,a5,0x2
    14d0:	ff040713          	addi	a4,s0,-16
    14d4:	00f707b3          	add	a5,a4,a5
    14d8:	fb47a783          	lw	a5,-76(a5)
    14dc:	0047f793          	andi	a5,a5,4
    14e0:	04078a63          	beqz	a5,1534 <main+0x4b0>
    14e4:	f9c42683          	lw	a3,-100(s0)
    14e8:	fee45703          	lhu	a4,-18(s0)
    14ec:	00070793          	mv	a5,a4
    14f0:	00479793          	slli	a5,a5,0x4
    14f4:	00e787b3          	add	a5,a5,a4
    14f8:	00279793          	slli	a5,a5,0x2
    14fc:	ff040713          	addi	a4,s0,-16
    1500:	00f707b3          	add	a5,a4,a5
    1504:	f9479583          	lh	a1,-108(a5)
    1508:	fee45703          	lhu	a4,-18(s0)
    150c:	00070793          	mv	a5,a4
    1510:	00479793          	slli	a5,a5,0x4
    1514:	00e787b3          	add	a5,a5,a4
    1518:	00279793          	slli	a5,a5,0x2
    151c:	ff040713          	addi	a4,s0,-16
    1520:	00f707b3          	add	a5,a4,a5
    1524:	fa87a783          	lw	a5,-88(a5)
    1528:	00078613          	mv	a2,a5
    152c:	00068513          	mv	a0,a3
    1530:	041010ef          	jal	ra,2d70 <core_init_state>
    1534:	fee45783          	lhu	a5,-18(s0)
    1538:	00178793          	addi	a5,a5,1
    153c:	fef41723          	sh	a5,-18(s0)
    1540:	fee45783          	lhu	a5,-18(s0)
    1544:	e0078ce3          	beqz	a5,135c <main+0x2d8>
    1548:	fa042783          	lw	a5,-96(s0)
    154c:	0a079063          	bnez	a5,15ec <main+0x568>
    1550:	fc042e23          	sw	zero,-36(s0)
    1554:	00100793          	li	a5,1
    1558:	faf42023          	sw	a5,-96(s0)
    155c:	0440006f          	j	15a0 <main+0x51c>
    1560:	fa042703          	lw	a4,-96(s0)
    1564:	00070793          	mv	a5,a4
    1568:	00279793          	slli	a5,a5,0x2
    156c:	00e787b3          	add	a5,a5,a4
    1570:	00179793          	slli	a5,a5,0x1
    1574:	faf42023          	sw	a5,-96(s0)
    1578:	1ac020ef          	jal	ra,3724 <start_time>
    157c:	f8440793          	addi	a5,s0,-124
    1580:	00078513          	mv	a0,a5
    1584:	9f1ff0ef          	jal	ra,f74 <iterate>
    1588:	1cc020ef          	jal	ra,3754 <stop_time>
    158c:	1f8020ef          	jal	ra,3784 <get_time>
    1590:	00050793          	mv	a5,a0
    1594:	00078513          	mv	a0,a5
    1598:	21c020ef          	jal	ra,37b4 <time_in_secs>
    159c:	fca42e23          	sw	a0,-36(s0)
    15a0:	fdc42783          	lw	a5,-36(s0)
    15a4:	fa078ee3          	beqz	a5,1560 <main+0x4dc>
    15a8:	fdc42783          	lw	a5,-36(s0)
    15ac:	fcf42c23          	sw	a5,-40(s0)
    15b0:	fd842783          	lw	a5,-40(s0)
    15b4:	00079663          	bnez	a5,15c0 <main+0x53c>
    15b8:	00100793          	li	a5,1
    15bc:	fcf42c23          	sw	a5,-40(s0)
    15c0:	fa042483          	lw	s1,-96(s0)
    15c4:	fd842583          	lw	a1,-40(s0)
    15c8:	00a00513          	li	a0,10
    15cc:	2b0030ef          	jal	ra,487c <__udivsi3>
    15d0:	00050793          	mv	a5,a0
    15d4:	00178793          	addi	a5,a5,1
    15d8:	00078593          	mv	a1,a5
    15dc:	00048513          	mv	a0,s1
    15e0:	270030ef          	jal	ra,4850 <__mulsi3>
    15e4:	00050793          	mv	a5,a0
    15e8:	faf42023          	sw	a5,-96(s0)
    15ec:	138020ef          	jal	ra,3724 <start_time>
    15f0:	f8440793          	addi	a5,s0,-124
    15f4:	00078513          	mv	a0,a5
    15f8:	97dff0ef          	jal	ra,f74 <iterate>
    15fc:	158020ef          	jal	ra,3754 <stop_time>
    1600:	184020ef          	jal	ra,3784 <get_time>
    1604:	fca42823          	sw	a0,-48(s0)
    1608:	f8441783          	lh	a5,-124(s0)
    160c:	fd645703          	lhu	a4,-42(s0)
    1610:	00070593          	mv	a1,a4
    1614:	00078513          	mv	a0,a5
    1618:	054020ef          	jal	ra,366c <crc16>
    161c:	00050793          	mv	a5,a0
    1620:	fcf41b23          	sh	a5,-42(s0)
    1624:	f8641783          	lh	a5,-122(s0)
    1628:	fd645703          	lhu	a4,-42(s0)
    162c:	00070593          	mv	a1,a4
    1630:	00078513          	mv	a0,a5
    1634:	038020ef          	jal	ra,366c <crc16>
    1638:	00050793          	mv	a5,a0
    163c:	fcf41b23          	sh	a5,-42(s0)
    1640:	f8841783          	lh	a5,-120(s0)
    1644:	fd645703          	lhu	a4,-42(s0)
    1648:	00070593          	mv	a1,a4
    164c:	00078513          	mv	a0,a5
    1650:	01c020ef          	jal	ra,366c <crc16>
    1654:	00050793          	mv	a5,a0
    1658:	fcf41b23          	sh	a5,-42(s0)
    165c:	f9c42783          	lw	a5,-100(s0)
    1660:	01079793          	slli	a5,a5,0x10
    1664:	4107d793          	srai	a5,a5,0x10
    1668:	fd645703          	lhu	a4,-42(s0)
    166c:	00070593          	mv	a1,a4
    1670:	00078513          	mv	a0,a5
    1674:	7f9010ef          	jal	ra,366c <crc16>
    1678:	00050793          	mv	a5,a0
    167c:	fcf41b23          	sh	a5,-42(s0)
    1680:	fd645783          	lhu	a5,-42(s0)
    1684:	0000f737          	lui	a4,0xf
    1688:	9f570713          	addi	a4,a4,-1547 # e9f5 <__BSS_END__+0x7d2d>
    168c:	0ae78063          	beq	a5,a4,172c <main+0x6a8>
    1690:	0000f737          	lui	a4,0xf
    1694:	9f570713          	addi	a4,a4,-1547 # e9f5 <__BSS_END__+0x7d2d>
    1698:	0cf74263          	blt	a4,a5,175c <main+0x6d8>
    169c:	00009737          	lui	a4,0x9
    16a0:	a0270713          	addi	a4,a4,-1534 # 8a02 <__BSS_END__+0x1d3a>
    16a4:	04e78263          	beq	a5,a4,16e8 <main+0x664>
    16a8:	00009737          	lui	a4,0x9
    16ac:	a0270713          	addi	a4,a4,-1534 # 8a02 <__BSS_END__+0x1d3a>
    16b0:	0af74663          	blt	a4,a5,175c <main+0x6d8>
    16b4:	00008737          	lui	a4,0x8
    16b8:	b0570713          	addi	a4,a4,-1275 # 7b05 <__BSS_END__+0xe3d>
    16bc:	04e78063          	beq	a5,a4,16fc <main+0x678>
    16c0:	00008737          	lui	a4,0x8
    16c4:	b0570713          	addi	a4,a4,-1275 # 7b05 <__BSS_END__+0xe3d>
    16c8:	08f74a63          	blt	a4,a5,175c <main+0x6d8>
    16cc:	00002737          	lui	a4,0x2
    16d0:	8f270713          	addi	a4,a4,-1806 # 18f2 <main+0x86e>
    16d4:	06e78863          	beq	a5,a4,1744 <main+0x6c0>
    16d8:	00005737          	lui	a4,0x5
    16dc:	eaf70713          	addi	a4,a4,-337 # 4eaf <__errno+0x173>
    16e0:	02e78a63          	beq	a5,a4,1714 <main+0x690>
    16e4:	0780006f          	j	175c <main+0x6d8>
    16e8:	fe041423          	sh	zero,-24(s0)
    16ec:	000057b7          	lui	a5,0x5
    16f0:	d5c78513          	addi	a0,a5,-676 # 4d5c <__errno+0x20>
    16f4:	0a4030ef          	jal	ra,4798 <ee_printf>
    16f8:	0700006f          	j	1768 <main+0x6e4>
    16fc:	00100793          	li	a5,1
    1700:	fef41423          	sh	a5,-24(s0)
    1704:	000057b7          	lui	a5,0x5
    1708:	d8c78513          	addi	a0,a5,-628 # 4d8c <__errno+0x50>
    170c:	08c030ef          	jal	ra,4798 <ee_printf>
    1710:	0580006f          	j	1768 <main+0x6e4>
    1714:	00200793          	li	a5,2
    1718:	fef41423          	sh	a5,-24(s0)
    171c:	000057b7          	lui	a5,0x5
    1720:	db878513          	addi	a0,a5,-584 # 4db8 <__errno+0x7c>
    1724:	074030ef          	jal	ra,4798 <ee_printf>
    1728:	0400006f          	j	1768 <main+0x6e4>
    172c:	00300793          	li	a5,3
    1730:	fef41423          	sh	a5,-24(s0)
    1734:	000057b7          	lui	a5,0x5
    1738:	dec78513          	addi	a0,a5,-532 # 4dec <__errno+0xb0>
    173c:	05c030ef          	jal	ra,4798 <ee_printf>
    1740:	0280006f          	j	1768 <main+0x6e4>
    1744:	00400793          	li	a5,4
    1748:	fef41423          	sh	a5,-24(s0)
    174c:	000057b7          	lui	a5,0x5
    1750:	e1c78513          	addi	a0,a5,-484 # 4e1c <__errno+0xe0>
    1754:	044030ef          	jal	ra,4798 <ee_printf>
    1758:	0100006f          	j	1768 <main+0x6e4>
    175c:	fff00793          	li	a5,-1
    1760:	fef41323          	sh	a5,-26(s0)
    1764:	00000013          	nop
    1768:	fe841783          	lh	a5,-24(s0)
    176c:	3807ce63          	bltz	a5,1b08 <main+0xa84>
    1770:	fe041723          	sh	zero,-18(s0)
    1774:	3880006f          	j	1afc <main+0xa78>
    1778:	fee45703          	lhu	a4,-18(s0)
    177c:	00070793          	mv	a5,a4
    1780:	00479793          	slli	a5,a5,0x4
    1784:	00e787b3          	add	a5,a5,a4
    1788:	00279793          	slli	a5,a5,0x2
    178c:	ff040713          	addi	a4,s0,-16
    1790:	00f707b3          	add	a5,a4,a5
    1794:	fc079a23          	sh	zero,-44(a5)
    1798:	fee45703          	lhu	a4,-18(s0)
    179c:	00070793          	mv	a5,a4
    17a0:	00479793          	slli	a5,a5,0x4
    17a4:	00e787b3          	add	a5,a5,a4
    17a8:	00279793          	slli	a5,a5,0x2
    17ac:	ff040713          	addi	a4,s0,-16
    17b0:	00f707b3          	add	a5,a4,a5
    17b4:	fb47a783          	lw	a5,-76(a5)
    17b8:	0017f793          	andi	a5,a5,1
    17bc:	0e078463          	beqz	a5,18a4 <main+0x820>
    17c0:	fee45703          	lhu	a4,-18(s0)
    17c4:	00070793          	mv	a5,a4
    17c8:	00479793          	slli	a5,a5,0x4
    17cc:	00e787b3          	add	a5,a5,a4
    17d0:	00279793          	slli	a5,a5,0x2
    17d4:	ff040713          	addi	a4,s0,-16
    17d8:	00f707b3          	add	a5,a4,a5
    17dc:	fce7d703          	lhu	a4,-50(a5)
    17e0:	fe841783          	lh	a5,-24(s0)
    17e4:	000066b7          	lui	a3,0x6
    17e8:	01068693          	addi	a3,a3,16 # 6010 <list_known_crc>
    17ec:	00179793          	slli	a5,a5,0x1
    17f0:	00f687b3          	add	a5,a3,a5
    17f4:	0007d783          	lhu	a5,0(a5)
    17f8:	0af70663          	beq	a4,a5,18a4 <main+0x820>
    17fc:	fee45583          	lhu	a1,-18(s0)
    1800:	fee45703          	lhu	a4,-18(s0)
    1804:	00070793          	mv	a5,a4
    1808:	00479793          	slli	a5,a5,0x4
    180c:	00e787b3          	add	a5,a5,a4
    1810:	00279793          	slli	a5,a5,0x2
    1814:	ff040713          	addi	a4,s0,-16
    1818:	00f707b3          	add	a5,a4,a5
    181c:	fce7d783          	lhu	a5,-50(a5)
    1820:	00078613          	mv	a2,a5
    1824:	fe841783          	lh	a5,-24(s0)
    1828:	00006737          	lui	a4,0x6
    182c:	01070713          	addi	a4,a4,16 # 6010 <list_known_crc>
    1830:	00179793          	slli	a5,a5,0x1
    1834:	00f707b3          	add	a5,a4,a5
    1838:	0007d783          	lhu	a5,0(a5)
    183c:	00078693          	mv	a3,a5
    1840:	000057b7          	lui	a5,0x5
    1844:	e4878513          	addi	a0,a5,-440 # 4e48 <__errno+0x10c>
    1848:	751020ef          	jal	ra,4798 <ee_printf>
    184c:	fee45703          	lhu	a4,-18(s0)
    1850:	00070793          	mv	a5,a4
    1854:	00479793          	slli	a5,a5,0x4
    1858:	00e787b3          	add	a5,a5,a4
    185c:	00279793          	slli	a5,a5,0x2
    1860:	ff040693          	addi	a3,s0,-16
    1864:	00f687b3          	add	a5,a3,a5
    1868:	fd479783          	lh	a5,-44(a5)
    186c:	01079793          	slli	a5,a5,0x10
    1870:	0107d793          	srli	a5,a5,0x10
    1874:	00178793          	addi	a5,a5,1
    1878:	01079793          	slli	a5,a5,0x10
    187c:	0107d793          	srli	a5,a5,0x10
    1880:	01079693          	slli	a3,a5,0x10
    1884:	4106d693          	srai	a3,a3,0x10
    1888:	00070793          	mv	a5,a4
    188c:	00479793          	slli	a5,a5,0x4
    1890:	00e787b3          	add	a5,a5,a4
    1894:	00279793          	slli	a5,a5,0x2
    1898:	ff040713          	addi	a4,s0,-16
    189c:	00f707b3          	add	a5,a4,a5
    18a0:	fcd79a23          	sh	a3,-44(a5)
    18a4:	fee45703          	lhu	a4,-18(s0)
    18a8:	00070793          	mv	a5,a4
    18ac:	00479793          	slli	a5,a5,0x4
    18b0:	00e787b3          	add	a5,a5,a4
    18b4:	00279793          	slli	a5,a5,0x2
    18b8:	ff040713          	addi	a4,s0,-16
    18bc:	00f707b3          	add	a5,a4,a5
    18c0:	fb47a783          	lw	a5,-76(a5)
    18c4:	0027f793          	andi	a5,a5,2
    18c8:	0e078463          	beqz	a5,19b0 <main+0x92c>
    18cc:	fee45703          	lhu	a4,-18(s0)
    18d0:	00070793          	mv	a5,a4
    18d4:	00479793          	slli	a5,a5,0x4
    18d8:	00e787b3          	add	a5,a5,a4
    18dc:	00279793          	slli	a5,a5,0x2
    18e0:	ff040713          	addi	a4,s0,-16
    18e4:	00f707b3          	add	a5,a4,a5
    18e8:	fd07d703          	lhu	a4,-48(a5)
    18ec:	fe841783          	lh	a5,-24(s0)
    18f0:	000066b7          	lui	a3,0x6
    18f4:	01c68693          	addi	a3,a3,28 # 601c <matrix_known_crc>
    18f8:	00179793          	slli	a5,a5,0x1
    18fc:	00f687b3          	add	a5,a3,a5
    1900:	0007d783          	lhu	a5,0(a5)
    1904:	0af70663          	beq	a4,a5,19b0 <main+0x92c>
    1908:	fee45583          	lhu	a1,-18(s0)
    190c:	fee45703          	lhu	a4,-18(s0)
    1910:	00070793          	mv	a5,a4
    1914:	00479793          	slli	a5,a5,0x4
    1918:	00e787b3          	add	a5,a5,a4
    191c:	00279793          	slli	a5,a5,0x2
    1920:	ff040713          	addi	a4,s0,-16
    1924:	00f707b3          	add	a5,a4,a5
    1928:	fd07d783          	lhu	a5,-48(a5)
    192c:	00078613          	mv	a2,a5
    1930:	fe841783          	lh	a5,-24(s0)
    1934:	00006737          	lui	a4,0x6
    1938:	01c70713          	addi	a4,a4,28 # 601c <matrix_known_crc>
    193c:	00179793          	slli	a5,a5,0x1
    1940:	00f707b3          	add	a5,a4,a5
    1944:	0007d783          	lhu	a5,0(a5)
    1948:	00078693          	mv	a3,a5
    194c:	000057b7          	lui	a5,0x5
    1950:	e7878513          	addi	a0,a5,-392 # 4e78 <__errno+0x13c>
    1954:	645020ef          	jal	ra,4798 <ee_printf>
    1958:	fee45703          	lhu	a4,-18(s0)
    195c:	00070793          	mv	a5,a4
    1960:	00479793          	slli	a5,a5,0x4
    1964:	00e787b3          	add	a5,a5,a4
    1968:	00279793          	slli	a5,a5,0x2
    196c:	ff040693          	addi	a3,s0,-16
    1970:	00f687b3          	add	a5,a3,a5
    1974:	fd479783          	lh	a5,-44(a5)
    1978:	01079793          	slli	a5,a5,0x10
    197c:	0107d793          	srli	a5,a5,0x10
    1980:	00178793          	addi	a5,a5,1
    1984:	01079793          	slli	a5,a5,0x10
    1988:	0107d793          	srli	a5,a5,0x10
    198c:	01079693          	slli	a3,a5,0x10
    1990:	4106d693          	srai	a3,a3,0x10
    1994:	00070793          	mv	a5,a4
    1998:	00479793          	slli	a5,a5,0x4
    199c:	00e787b3          	add	a5,a5,a4
    19a0:	00279793          	slli	a5,a5,0x2
    19a4:	ff040713          	addi	a4,s0,-16
    19a8:	00f707b3          	add	a5,a4,a5
    19ac:	fcd79a23          	sh	a3,-44(a5)
    19b0:	fee45703          	lhu	a4,-18(s0)
    19b4:	00070793          	mv	a5,a4
    19b8:	00479793          	slli	a5,a5,0x4
    19bc:	00e787b3          	add	a5,a5,a4
    19c0:	00279793          	slli	a5,a5,0x2
    19c4:	ff040713          	addi	a4,s0,-16
    19c8:	00f707b3          	add	a5,a4,a5
    19cc:	fb47a783          	lw	a5,-76(a5)
    19d0:	0047f793          	andi	a5,a5,4
    19d4:	0e078063          	beqz	a5,1ab4 <main+0xa30>
    19d8:	fee45703          	lhu	a4,-18(s0)
    19dc:	00070793          	mv	a5,a4
    19e0:	00479793          	slli	a5,a5,0x4
    19e4:	00e787b3          	add	a5,a5,a4
    19e8:	00279793          	slli	a5,a5,0x2
    19ec:	ff040713          	addi	a4,s0,-16
    19f0:	00f707b3          	add	a5,a4,a5
    19f4:	fd27d703          	lhu	a4,-46(a5)
    19f8:	fe841783          	lh	a5,-24(s0)
    19fc:	81818693          	addi	a3,gp,-2024 # 6028 <state_known_crc>
    1a00:	00179793          	slli	a5,a5,0x1
    1a04:	00f687b3          	add	a5,a3,a5
    1a08:	0007d783          	lhu	a5,0(a5)
    1a0c:	0af70463          	beq	a4,a5,1ab4 <main+0xa30>
    1a10:	fee45583          	lhu	a1,-18(s0)
    1a14:	fee45703          	lhu	a4,-18(s0)
    1a18:	00070793          	mv	a5,a4
    1a1c:	00479793          	slli	a5,a5,0x4
    1a20:	00e787b3          	add	a5,a5,a4
    1a24:	00279793          	slli	a5,a5,0x2
    1a28:	ff040713          	addi	a4,s0,-16
    1a2c:	00f707b3          	add	a5,a4,a5
    1a30:	fd27d783          	lhu	a5,-46(a5)
    1a34:	00078613          	mv	a2,a5
    1a38:	fe841783          	lh	a5,-24(s0)
    1a3c:	81818713          	addi	a4,gp,-2024 # 6028 <state_known_crc>
    1a40:	00179793          	slli	a5,a5,0x1
    1a44:	00f707b3          	add	a5,a4,a5
    1a48:	0007d783          	lhu	a5,0(a5)
    1a4c:	00078693          	mv	a3,a5
    1a50:	000057b7          	lui	a5,0x5
    1a54:	eac78513          	addi	a0,a5,-340 # 4eac <__errno+0x170>
    1a58:	541020ef          	jal	ra,4798 <ee_printf>
    1a5c:	fee45703          	lhu	a4,-18(s0)
    1a60:	00070793          	mv	a5,a4
    1a64:	00479793          	slli	a5,a5,0x4
    1a68:	00e787b3          	add	a5,a5,a4
    1a6c:	00279793          	slli	a5,a5,0x2
    1a70:	ff040693          	addi	a3,s0,-16
    1a74:	00f687b3          	add	a5,a3,a5
    1a78:	fd479783          	lh	a5,-44(a5)
    1a7c:	01079793          	slli	a5,a5,0x10
    1a80:	0107d793          	srli	a5,a5,0x10
    1a84:	00178793          	addi	a5,a5,1
    1a88:	01079793          	slli	a5,a5,0x10
    1a8c:	0107d793          	srli	a5,a5,0x10
    1a90:	01079693          	slli	a3,a5,0x10
    1a94:	4106d693          	srai	a3,a3,0x10
    1a98:	00070793          	mv	a5,a4
    1a9c:	00479793          	slli	a5,a5,0x4
    1aa0:	00e787b3          	add	a5,a5,a4
    1aa4:	00279793          	slli	a5,a5,0x2
    1aa8:	ff040713          	addi	a4,s0,-16
    1aac:	00f707b3          	add	a5,a4,a5
    1ab0:	fcd79a23          	sh	a3,-44(a5)
    1ab4:	fee45703          	lhu	a4,-18(s0)
    1ab8:	00070793          	mv	a5,a4
    1abc:	00479793          	slli	a5,a5,0x4
    1ac0:	00e787b3          	add	a5,a5,a4
    1ac4:	00279793          	slli	a5,a5,0x2
    1ac8:	ff040713          	addi	a4,s0,-16
    1acc:	00f707b3          	add	a5,a4,a5
    1ad0:	fd479783          	lh	a5,-44(a5)
    1ad4:	01079713          	slli	a4,a5,0x10
    1ad8:	01075713          	srli	a4,a4,0x10
    1adc:	fe645783          	lhu	a5,-26(s0)
    1ae0:	00f707b3          	add	a5,a4,a5
    1ae4:	01079793          	slli	a5,a5,0x10
    1ae8:	0107d793          	srli	a5,a5,0x10
    1aec:	fef41323          	sh	a5,-26(s0)
    1af0:	fee45783          	lhu	a5,-18(s0)
    1af4:	00178793          	addi	a5,a5,1
    1af8:	fef41723          	sh	a5,-18(s0)
    1afc:	fee45703          	lhu	a4,-18(s0)
    1b00:	ca41a783          	lw	a5,-860(gp) # 64b4 <default_num_contexts>
    1b04:	c6f76ae3          	bltu	a4,a5,1778 <main+0x6f4>
    1b08:	3b5010ef          	jal	ra,36bc <check_data_types>
    1b0c:	00050793          	mv	a5,a0
    1b10:	01079713          	slli	a4,a5,0x10
    1b14:	01075713          	srli	a4,a4,0x10
    1b18:	fe645783          	lhu	a5,-26(s0)
    1b1c:	00f707b3          	add	a5,a4,a5
    1b20:	01079793          	slli	a5,a5,0x10
    1b24:	0107d793          	srli	a5,a5,0x10
    1b28:	fef41323          	sh	a5,-26(s0)
    1b2c:	f9c42783          	lw	a5,-100(s0)
    1b30:	00078593          	mv	a1,a5
    1b34:	000057b7          	lui	a5,0x5
    1b38:	edc78513          	addi	a0,a5,-292 # 4edc <__errno+0x1a0>
    1b3c:	45d020ef          	jal	ra,4798 <ee_printf>
    1b40:	fd042583          	lw	a1,-48(s0)
    1b44:	000057b7          	lui	a5,0x5
    1b48:	ef478513          	addi	a0,a5,-268 # 4ef4 <__errno+0x1b8>
    1b4c:	44d020ef          	jal	ra,4798 <ee_printf>
    1b50:	fd042503          	lw	a0,-48(s0)
    1b54:	461010ef          	jal	ra,37b4 <time_in_secs>
    1b58:	00050793          	mv	a5,a0
    1b5c:	00078593          	mv	a1,a5
    1b60:	000057b7          	lui	a5,0x5
    1b64:	f0c78513          	addi	a0,a5,-244 # 4f0c <__errno+0x1d0>
    1b68:	431020ef          	jal	ra,4798 <ee_printf>
    1b6c:	fd042503          	lw	a0,-48(s0)
    1b70:	445010ef          	jal	ra,37b4 <time_in_secs>
    1b74:	00050793          	mv	a5,a0
    1b78:	04078663          	beqz	a5,1bc4 <main+0xb40>
    1b7c:	fa042703          	lw	a4,-96(s0)
    1b80:	ca41a783          	lw	a5,-860(gp) # 64b4 <default_num_contexts>
    1b84:	00078593          	mv	a1,a5
    1b88:	00070513          	mv	a0,a4
    1b8c:	4c5020ef          	jal	ra,4850 <__mulsi3>
    1b90:	00050793          	mv	a5,a0
    1b94:	00078493          	mv	s1,a5
    1b98:	fd042503          	lw	a0,-48(s0)
    1b9c:	419010ef          	jal	ra,37b4 <time_in_secs>
    1ba0:	00050793          	mv	a5,a0
    1ba4:	00078593          	mv	a1,a5
    1ba8:	00048513          	mv	a0,s1
    1bac:	4d1020ef          	jal	ra,487c <__udivsi3>
    1bb0:	00050793          	mv	a5,a0
    1bb4:	00078593          	mv	a1,a5
    1bb8:	000057b7          	lui	a5,0x5
    1bbc:	f2478513          	addi	a0,a5,-220 # 4f24 <__errno+0x1e8>
    1bc0:	3d9020ef          	jal	ra,4798 <ee_printf>
    1bc4:	fd042503          	lw	a0,-48(s0)
    1bc8:	3ed010ef          	jal	ra,37b4 <time_in_secs>
    1bcc:	00050713          	mv	a4,a0
    1bd0:	00900793          	li	a5,9
    1bd4:	02e7e663          	bltu	a5,a4,1c00 <main+0xb7c>
    1bd8:	000057b7          	lui	a5,0x5
    1bdc:	f3c78513          	addi	a0,a5,-196 # 4f3c <__errno+0x200>
    1be0:	3b9020ef          	jal	ra,4798 <ee_printf>
    1be4:	fe641783          	lh	a5,-26(s0)
    1be8:	01079793          	slli	a5,a5,0x10
    1bec:	0107d793          	srli	a5,a5,0x10
    1bf0:	00178793          	addi	a5,a5,1
    1bf4:	01079793          	slli	a5,a5,0x10
    1bf8:	0107d793          	srli	a5,a5,0x10
    1bfc:	fef41323          	sh	a5,-26(s0)
    1c00:	fa042703          	lw	a4,-96(s0)
    1c04:	ca41a783          	lw	a5,-860(gp) # 64b4 <default_num_contexts>
    1c08:	00078593          	mv	a1,a5
    1c0c:	00070513          	mv	a0,a4
    1c10:	441020ef          	jal	ra,4850 <__mulsi3>
    1c14:	00050793          	mv	a5,a0
    1c18:	00078593          	mv	a1,a5
    1c1c:	000057b7          	lui	a5,0x5
    1c20:	f7c78513          	addi	a0,a5,-132 # 4f7c <__errno+0x240>
    1c24:	375020ef          	jal	ra,4798 <ee_printf>
    1c28:	000057b7          	lui	a5,0x5
    1c2c:	f9478593          	addi	a1,a5,-108 # 4f94 <__errno+0x258>
    1c30:	000057b7          	lui	a5,0x5
    1c34:	fa078513          	addi	a0,a5,-96 # 4fa0 <__errno+0x264>
    1c38:	361020ef          	jal	ra,4798 <ee_printf>
    1c3c:	000057b7          	lui	a5,0x5
    1c40:	fb878593          	addi	a1,a5,-72 # 4fb8 <__errno+0x27c>
    1c44:	000057b7          	lui	a5,0x5
    1c48:	00c78513          	addi	a0,a5,12 # 500c <__errno+0x2d0>
    1c4c:	34d020ef          	jal	ra,4798 <ee_printf>
    1c50:	000057b7          	lui	a5,0x5
    1c54:	02478593          	addi	a1,a5,36 # 5024 <__errno+0x2e8>
    1c58:	000057b7          	lui	a5,0x5
    1c5c:	02c78513          	addi	a0,a5,44 # 502c <__errno+0x2f0>
    1c60:	339020ef          	jal	ra,4798 <ee_printf>
    1c64:	fd645783          	lhu	a5,-42(s0)
    1c68:	00078593          	mv	a1,a5
    1c6c:	000057b7          	lui	a5,0x5
    1c70:	04478513          	addi	a0,a5,68 # 5044 <__errno+0x308>
    1c74:	325020ef          	jal	ra,4798 <ee_printf>
    1c78:	fa442783          	lw	a5,-92(s0)
    1c7c:	0017f793          	andi	a5,a5,1
    1c80:	04078e63          	beqz	a5,1cdc <main+0xc58>
    1c84:	fe041723          	sh	zero,-18(s0)
    1c88:	0480006f          	j	1cd0 <main+0xc4c>
    1c8c:	fee45683          	lhu	a3,-18(s0)
    1c90:	fee45703          	lhu	a4,-18(s0)
    1c94:	00070793          	mv	a5,a4
    1c98:	00479793          	slli	a5,a5,0x4
    1c9c:	00e787b3          	add	a5,a5,a4
    1ca0:	00279793          	slli	a5,a5,0x2
    1ca4:	ff040713          	addi	a4,s0,-16
    1ca8:	00f707b3          	add	a5,a4,a5
    1cac:	fce7d783          	lhu	a5,-50(a5)
    1cb0:	00078613          	mv	a2,a5
    1cb4:	00068593          	mv	a1,a3
    1cb8:	000057b7          	lui	a5,0x5
    1cbc:	06078513          	addi	a0,a5,96 # 5060 <__errno+0x324>
    1cc0:	2d9020ef          	jal	ra,4798 <ee_printf>
    1cc4:	fee45783          	lhu	a5,-18(s0)
    1cc8:	00178793          	addi	a5,a5,1
    1ccc:	fef41723          	sh	a5,-18(s0)
    1cd0:	fee45703          	lhu	a4,-18(s0)
    1cd4:	ca41a783          	lw	a5,-860(gp) # 64b4 <default_num_contexts>
    1cd8:	faf76ae3          	bltu	a4,a5,1c8c <main+0xc08>
    1cdc:	fa442783          	lw	a5,-92(s0)
    1ce0:	0027f793          	andi	a5,a5,2
    1ce4:	04078e63          	beqz	a5,1d40 <main+0xcbc>
    1ce8:	fe041723          	sh	zero,-18(s0)
    1cec:	0480006f          	j	1d34 <main+0xcb0>
    1cf0:	fee45683          	lhu	a3,-18(s0)
    1cf4:	fee45703          	lhu	a4,-18(s0)
    1cf8:	00070793          	mv	a5,a4
    1cfc:	00479793          	slli	a5,a5,0x4
    1d00:	00e787b3          	add	a5,a5,a4
    1d04:	00279793          	slli	a5,a5,0x2
    1d08:	ff040713          	addi	a4,s0,-16
    1d0c:	00f707b3          	add	a5,a4,a5
    1d10:	fd07d783          	lhu	a5,-48(a5)
    1d14:	00078613          	mv	a2,a5
    1d18:	00068593          	mv	a1,a3
    1d1c:	000057b7          	lui	a5,0x5
    1d20:	07c78513          	addi	a0,a5,124 # 507c <__errno+0x340>
    1d24:	275020ef          	jal	ra,4798 <ee_printf>
    1d28:	fee45783          	lhu	a5,-18(s0)
    1d2c:	00178793          	addi	a5,a5,1
    1d30:	fef41723          	sh	a5,-18(s0)
    1d34:	fee45703          	lhu	a4,-18(s0)
    1d38:	ca41a783          	lw	a5,-860(gp) # 64b4 <default_num_contexts>
    1d3c:	faf76ae3          	bltu	a4,a5,1cf0 <main+0xc6c>
    1d40:	fa442783          	lw	a5,-92(s0)
    1d44:	0047f793          	andi	a5,a5,4
    1d48:	04078e63          	beqz	a5,1da4 <main+0xd20>
    1d4c:	fe041723          	sh	zero,-18(s0)
    1d50:	0480006f          	j	1d98 <main+0xd14>
    1d54:	fee45683          	lhu	a3,-18(s0)
    1d58:	fee45703          	lhu	a4,-18(s0)
    1d5c:	00070793          	mv	a5,a4
    1d60:	00479793          	slli	a5,a5,0x4
    1d64:	00e787b3          	add	a5,a5,a4
    1d68:	00279793          	slli	a5,a5,0x2
    1d6c:	ff040713          	addi	a4,s0,-16
    1d70:	00f707b3          	add	a5,a4,a5
    1d74:	fd27d783          	lhu	a5,-46(a5)
    1d78:	00078613          	mv	a2,a5
    1d7c:	00068593          	mv	a1,a3
    1d80:	000057b7          	lui	a5,0x5
    1d84:	09878513          	addi	a0,a5,152 # 5098 <__errno+0x35c>
    1d88:	211020ef          	jal	ra,4798 <ee_printf>
    1d8c:	fee45783          	lhu	a5,-18(s0)
    1d90:	00178793          	addi	a5,a5,1
    1d94:	fef41723          	sh	a5,-18(s0)
    1d98:	fee45703          	lhu	a4,-18(s0)
    1d9c:	ca41a783          	lw	a5,-860(gp) # 64b4 <default_num_contexts>
    1da0:	faf76ae3          	bltu	a4,a5,1d54 <main+0xcd0>
    1da4:	fe041723          	sh	zero,-18(s0)
    1da8:	0480006f          	j	1df0 <main+0xd6c>
    1dac:	fee45683          	lhu	a3,-18(s0)
    1db0:	fee45703          	lhu	a4,-18(s0)
    1db4:	00070793          	mv	a5,a4
    1db8:	00479793          	slli	a5,a5,0x4
    1dbc:	00e787b3          	add	a5,a5,a4
    1dc0:	00279793          	slli	a5,a5,0x2
    1dc4:	ff040713          	addi	a4,s0,-16
    1dc8:	00f707b3          	add	a5,a4,a5
    1dcc:	fcc7d783          	lhu	a5,-52(a5)
    1dd0:	00078613          	mv	a2,a5
    1dd4:	00068593          	mv	a1,a3
    1dd8:	000057b7          	lui	a5,0x5
    1ddc:	0b478513          	addi	a0,a5,180 # 50b4 <__errno+0x378>
    1de0:	1b9020ef          	jal	ra,4798 <ee_printf>
    1de4:	fee45783          	lhu	a5,-18(s0)
    1de8:	00178793          	addi	a5,a5,1
    1dec:	fef41723          	sh	a5,-18(s0)
    1df0:	fee45703          	lhu	a4,-18(s0)
    1df4:	ca41a783          	lw	a5,-860(gp) # 64b4 <default_num_contexts>
    1df8:	faf76ae3          	bltu	a4,a5,1dac <main+0xd28>
    1dfc:	fe641783          	lh	a5,-26(s0)
    1e00:	00079863          	bnez	a5,1e10 <main+0xd8c>
    1e04:	000057b7          	lui	a5,0x5
    1e08:	0d078513          	addi	a0,a5,208 # 50d0 <__errno+0x394>
    1e0c:	18d020ef          	jal	ra,4798 <ee_printf>
    1e10:	fe641783          	lh	a5,-26(s0)
    1e14:	00f05863          	blez	a5,1e24 <main+0xda0>
    1e18:	000057b7          	lui	a5,0x5
    1e1c:	11c78513          	addi	a0,a5,284 # 511c <__errno+0x3e0>
    1e20:	179020ef          	jal	ra,4798 <ee_printf>
    1e24:	fe641783          	lh	a5,-26(s0)
    1e28:	0007d863          	bgez	a5,1e38 <main+0xdb4>
    1e2c:	000057b7          	lui	a5,0x5
    1e30:	13078513          	addi	a0,a5,304 # 5130 <__errno+0x3f4>
    1e34:	165020ef          	jal	ra,4798 <ee_printf>
    1e38:	f8440793          	addi	a5,s0,-124
    1e3c:	04278793          	addi	a5,a5,66
    1e40:	00078513          	mv	a0,a5
    1e44:	1ed010ef          	jal	ra,3830 <portable_fini>
    1e48:	00000013          	nop
    1e4c:	07c12083          	lw	ra,124(sp)
    1e50:	07812403          	lw	s0,120(sp)
    1e54:	07412483          	lw	s1,116(sp)
    1e58:	08010113          	addi	sp,sp,128
    1e5c:	00008067          	ret

00001e60 <core_bench_matrix>:
    1e60:	fc010113          	addi	sp,sp,-64
    1e64:	02112e23          	sw	ra,60(sp)
    1e68:	02812c23          	sw	s0,56(sp)
    1e6c:	04010413          	addi	s0,sp,64
    1e70:	fca42623          	sw	a0,-52(s0)
    1e74:	00058793          	mv	a5,a1
    1e78:	00060713          	mv	a4,a2
    1e7c:	fcf41523          	sh	a5,-54(s0)
    1e80:	00070793          	mv	a5,a4
    1e84:	fcf41423          	sh	a5,-56(s0)
    1e88:	fcc42783          	lw	a5,-52(s0)
    1e8c:	0007a783          	lw	a5,0(a5)
    1e90:	fef42623          	sw	a5,-20(s0)
    1e94:	fcc42783          	lw	a5,-52(s0)
    1e98:	00c7a783          	lw	a5,12(a5)
    1e9c:	fef42423          	sw	a5,-24(s0)
    1ea0:	fcc42783          	lw	a5,-52(s0)
    1ea4:	0047a783          	lw	a5,4(a5)
    1ea8:	fef42223          	sw	a5,-28(s0)
    1eac:	fcc42783          	lw	a5,-52(s0)
    1eb0:	0087a783          	lw	a5,8(a5)
    1eb4:	fef42023          	sw	a5,-32(s0)
    1eb8:	fca45783          	lhu	a5,-54(s0)
    1ebc:	fcf41f23          	sh	a5,-34(s0)
    1ec0:	fde41783          	lh	a5,-34(s0)
    1ec4:	00078713          	mv	a4,a5
    1ec8:	fe042683          	lw	a3,-32(s0)
    1ecc:	fe442603          	lw	a2,-28(s0)
    1ed0:	fe842583          	lw	a1,-24(s0)
    1ed4:	fec42503          	lw	a0,-20(s0)
    1ed8:	03c000ef          	jal	ra,1f14 <matrix_test>
    1edc:	00050793          	mv	a5,a0
    1ee0:	00078713          	mv	a4,a5
    1ee4:	fc845783          	lhu	a5,-56(s0)
    1ee8:	00078593          	mv	a1,a5
    1eec:	00070513          	mv	a0,a4
    1ef0:	77c010ef          	jal	ra,366c <crc16>
    1ef4:	00050793          	mv	a5,a0
    1ef8:	fcf41423          	sh	a5,-56(s0)
    1efc:	fc845783          	lhu	a5,-56(s0)
    1f00:	00078513          	mv	a0,a5
    1f04:	03c12083          	lw	ra,60(sp)
    1f08:	03812403          	lw	s0,56(sp)
    1f0c:	04010113          	addi	sp,sp,64
    1f10:	00008067          	ret

00001f14 <matrix_test>:
    1f14:	fc010113          	addi	sp,sp,-64
    1f18:	02112e23          	sw	ra,60(sp)
    1f1c:	02812c23          	sw	s0,56(sp)
    1f20:	04010413          	addi	s0,sp,64
    1f24:	fca42e23          	sw	a0,-36(s0)
    1f28:	fcb42c23          	sw	a1,-40(s0)
    1f2c:	fcc42a23          	sw	a2,-44(s0)
    1f30:	fcd42823          	sw	a3,-48(s0)
    1f34:	00070793          	mv	a5,a4
    1f38:	fcf41723          	sh	a5,-50(s0)
    1f3c:	fe041723          	sh	zero,-18(s0)
    1f40:	fce45703          	lhu	a4,-50(s0)
    1f44:	fffff7b7          	lui	a5,0xfffff
    1f48:	00f767b3          	or	a5,a4,a5
    1f4c:	fef41623          	sh	a5,-20(s0)
    1f50:	fce41783          	lh	a5,-50(s0)
    1f54:	00078613          	mv	a2,a5
    1f58:	fd442583          	lw	a1,-44(s0)
    1f5c:	fdc42503          	lw	a0,-36(s0)
    1f60:	5ec000ef          	jal	ra,254c <matrix_add_const>
    1f64:	fce41783          	lh	a5,-50(s0)
    1f68:	00078693          	mv	a3,a5
    1f6c:	fd442603          	lw	a2,-44(s0)
    1f70:	fd842583          	lw	a1,-40(s0)
    1f74:	fdc42503          	lw	a0,-36(s0)
    1f78:	4d0000ef          	jal	ra,2448 <matrix_mul_const>
    1f7c:	fec41783          	lh	a5,-20(s0)
    1f80:	00078613          	mv	a2,a5
    1f84:	fd842583          	lw	a1,-40(s0)
    1f88:	fdc42503          	lw	a0,-36(s0)
    1f8c:	398000ef          	jal	ra,2324 <matrix_sum>
    1f90:	00050793          	mv	a5,a0
    1f94:	00078713          	mv	a4,a5
    1f98:	fee45783          	lhu	a5,-18(s0)
    1f9c:	00078593          	mv	a1,a5
    1fa0:	00070513          	mv	a0,a4
    1fa4:	6c8010ef          	jal	ra,366c <crc16>
    1fa8:	00050793          	mv	a5,a0
    1fac:	fef41723          	sh	a5,-18(s0)
    1fb0:	fd042683          	lw	a3,-48(s0)
    1fb4:	fd442603          	lw	a2,-44(s0)
    1fb8:	fd842583          	lw	a1,-40(s0)
    1fbc:	fdc42503          	lw	a0,-36(s0)
    1fc0:	684000ef          	jal	ra,2644 <matrix_mul_vect>
    1fc4:	fec41783          	lh	a5,-20(s0)
    1fc8:	00078613          	mv	a2,a5
    1fcc:	fd842583          	lw	a1,-40(s0)
    1fd0:	fdc42503          	lw	a0,-36(s0)
    1fd4:	350000ef          	jal	ra,2324 <matrix_sum>
    1fd8:	00050793          	mv	a5,a0
    1fdc:	00078713          	mv	a4,a5
    1fe0:	fee45783          	lhu	a5,-18(s0)
    1fe4:	00078593          	mv	a1,a5
    1fe8:	00070513          	mv	a0,a4
    1fec:	680010ef          	jal	ra,366c <crc16>
    1ff0:	00050793          	mv	a5,a0
    1ff4:	fef41723          	sh	a5,-18(s0)
    1ff8:	fd042683          	lw	a3,-48(s0)
    1ffc:	fd442603          	lw	a2,-44(s0)
    2000:	fd842583          	lw	a1,-40(s0)
    2004:	fdc42503          	lw	a0,-36(s0)
    2008:	754000ef          	jal	ra,275c <matrix_mul_matrix>
    200c:	fec41783          	lh	a5,-20(s0)
    2010:	00078613          	mv	a2,a5
    2014:	fd842583          	lw	a1,-40(s0)
    2018:	fdc42503          	lw	a0,-36(s0)
    201c:	308000ef          	jal	ra,2324 <matrix_sum>
    2020:	00050793          	mv	a5,a0
    2024:	00078713          	mv	a4,a5
    2028:	fee45783          	lhu	a5,-18(s0)
    202c:	00078593          	mv	a1,a5
    2030:	00070513          	mv	a0,a4
    2034:	638010ef          	jal	ra,366c <crc16>
    2038:	00050793          	mv	a5,a0
    203c:	fef41723          	sh	a5,-18(s0)
    2040:	fd042683          	lw	a3,-48(s0)
    2044:	fd442603          	lw	a2,-44(s0)
    2048:	fd842583          	lw	a1,-40(s0)
    204c:	fdc42503          	lw	a0,-36(s0)
    2050:	0ad000ef          	jal	ra,28fc <matrix_mul_matrix_bitextract>
    2054:	fec41783          	lh	a5,-20(s0)
    2058:	00078613          	mv	a2,a5
    205c:	fd842583          	lw	a1,-40(s0)
    2060:	fdc42503          	lw	a0,-36(s0)
    2064:	2c0000ef          	jal	ra,2324 <matrix_sum>
    2068:	00050793          	mv	a5,a0
    206c:	00078713          	mv	a4,a5
    2070:	fee45783          	lhu	a5,-18(s0)
    2074:	00078593          	mv	a1,a5
    2078:	00070513          	mv	a0,a4
    207c:	5f0010ef          	jal	ra,366c <crc16>
    2080:	00050793          	mv	a5,a0
    2084:	fef41723          	sh	a5,-18(s0)
    2088:	fce45783          	lhu	a5,-50(s0)
    208c:	40f007b3          	neg	a5,a5
    2090:	01079793          	slli	a5,a5,0x10
    2094:	0107d793          	srli	a5,a5,0x10
    2098:	01079793          	slli	a5,a5,0x10
    209c:	4107d793          	srai	a5,a5,0x10
    20a0:	00078613          	mv	a2,a5
    20a4:	fd442583          	lw	a1,-44(s0)
    20a8:	fdc42503          	lw	a0,-36(s0)
    20ac:	4a0000ef          	jal	ra,254c <matrix_add_const>
    20b0:	fee41783          	lh	a5,-18(s0)
    20b4:	00078513          	mv	a0,a5
    20b8:	03c12083          	lw	ra,60(sp)
    20bc:	03812403          	lw	s0,56(sp)
    20c0:	04010113          	addi	sp,sp,64
    20c4:	00008067          	ret

000020c8 <core_init_matrix>:
    20c8:	fc010113          	addi	sp,sp,-64
    20cc:	02112e23          	sw	ra,60(sp)
    20d0:	02812c23          	sw	s0,56(sp)
    20d4:	04010413          	addi	s0,sp,64
    20d8:	fca42623          	sw	a0,-52(s0)
    20dc:	fcb42423          	sw	a1,-56(s0)
    20e0:	fcc42223          	sw	a2,-60(s0)
    20e4:	fcd42023          	sw	a3,-64(s0)
    20e8:	fe042023          	sw	zero,-32(s0)
    20ec:	00100793          	li	a5,1
    20f0:	fef42623          	sw	a5,-20(s0)
    20f4:	fe042423          	sw	zero,-24(s0)
    20f8:	fe042223          	sw	zero,-28(s0)
    20fc:	fc442783          	lw	a5,-60(s0)
    2100:	02079a63          	bnez	a5,2134 <core_init_matrix+0x6c>
    2104:	00100793          	li	a5,1
    2108:	fcf42223          	sw	a5,-60(s0)
    210c:	0280006f          	j	2134 <core_init_matrix+0x6c>
    2110:	fe842783          	lw	a5,-24(s0)
    2114:	00178793          	addi	a5,a5,1 # fffff001 <__BSS_END__+0xffff8339>
    2118:	fef42423          	sw	a5,-24(s0)
    211c:	fe842583          	lw	a1,-24(s0)
    2120:	fe842503          	lw	a0,-24(s0)
    2124:	72c020ef          	jal	ra,4850 <__mulsi3>
    2128:	00050793          	mv	a5,a0
    212c:	00379793          	slli	a5,a5,0x3
    2130:	fef42223          	sw	a5,-28(s0)
    2134:	fe442703          	lw	a4,-28(s0)
    2138:	fcc42783          	lw	a5,-52(s0)
    213c:	fcf76ae3          	bltu	a4,a5,2110 <core_init_matrix+0x48>
    2140:	fe842783          	lw	a5,-24(s0)
    2144:	fff78793          	addi	a5,a5,-1
    2148:	fef42023          	sw	a5,-32(s0)
    214c:	fc842783          	lw	a5,-56(s0)
    2150:	fff78793          	addi	a5,a5,-1
    2154:	ffc7f793          	andi	a5,a5,-4
    2158:	00478793          	addi	a5,a5,4
    215c:	fcf42e23          	sw	a5,-36(s0)
    2160:	fe042583          	lw	a1,-32(s0)
    2164:	fe042503          	lw	a0,-32(s0)
    2168:	6e8020ef          	jal	ra,4850 <__mulsi3>
    216c:	00050793          	mv	a5,a0
    2170:	00179793          	slli	a5,a5,0x1
    2174:	fdc42703          	lw	a4,-36(s0)
    2178:	00f707b3          	add	a5,a4,a5
    217c:	fcf42c23          	sw	a5,-40(s0)
    2180:	fe042423          	sw	zero,-24(s0)
    2184:	1240006f          	j	22a8 <core_init_matrix+0x1e0>
    2188:	fe042223          	sw	zero,-28(s0)
    218c:	1040006f          	j	2290 <core_init_matrix+0x1c8>
    2190:	fc442583          	lw	a1,-60(s0)
    2194:	fec42503          	lw	a0,-20(s0)
    2198:	6b8020ef          	jal	ra,4850 <__mulsi3>
    219c:	00050793          	mv	a5,a0
    21a0:	00078713          	mv	a4,a5
    21a4:	41f75793          	srai	a5,a4,0x1f
    21a8:	0107d793          	srli	a5,a5,0x10
    21ac:	00f706b3          	add	a3,a4,a5
    21b0:	00010737          	lui	a4,0x10
    21b4:	fff70713          	addi	a4,a4,-1 # ffff <__BSS_END__+0x9337>
    21b8:	00e6f733          	and	a4,a3,a4
    21bc:	40f707b3          	sub	a5,a4,a5
    21c0:	fcf42223          	sw	a5,-60(s0)
    21c4:	fc442783          	lw	a5,-60(s0)
    21c8:	01079713          	slli	a4,a5,0x10
    21cc:	01075713          	srli	a4,a4,0x10
    21d0:	fec42783          	lw	a5,-20(s0)
    21d4:	01079793          	slli	a5,a5,0x10
    21d8:	0107d793          	srli	a5,a5,0x10
    21dc:	00f707b3          	add	a5,a4,a5
    21e0:	01079793          	slli	a5,a5,0x10
    21e4:	0107d793          	srli	a5,a5,0x10
    21e8:	fcf41b23          	sh	a5,-42(s0)
    21ec:	fe042583          	lw	a1,-32(s0)
    21f0:	fe842503          	lw	a0,-24(s0)
    21f4:	65c020ef          	jal	ra,4850 <__mulsi3>
    21f8:	00050793          	mv	a5,a0
    21fc:	00078713          	mv	a4,a5
    2200:	fe442783          	lw	a5,-28(s0)
    2204:	00f707b3          	add	a5,a4,a5
    2208:	00179793          	slli	a5,a5,0x1
    220c:	fd842703          	lw	a4,-40(s0)
    2210:	00f707b3          	add	a5,a4,a5
    2214:	fd645703          	lhu	a4,-42(s0)
    2218:	00e79023          	sh	a4,0(a5)
    221c:	fec42783          	lw	a5,-20(s0)
    2220:	01079713          	slli	a4,a5,0x10
    2224:	01075713          	srli	a4,a4,0x10
    2228:	fd645783          	lhu	a5,-42(s0)
    222c:	00f707b3          	add	a5,a4,a5
    2230:	01079793          	slli	a5,a5,0x10
    2234:	0107d793          	srli	a5,a5,0x10
    2238:	fcf41b23          	sh	a5,-42(s0)
    223c:	fd645783          	lhu	a5,-42(s0)
    2240:	0ff7f793          	andi	a5,a5,255
    2244:	fcf41b23          	sh	a5,-42(s0)
    2248:	fe042583          	lw	a1,-32(s0)
    224c:	fe842503          	lw	a0,-24(s0)
    2250:	600020ef          	jal	ra,4850 <__mulsi3>
    2254:	00050793          	mv	a5,a0
    2258:	00078713          	mv	a4,a5
    225c:	fe442783          	lw	a5,-28(s0)
    2260:	00f707b3          	add	a5,a4,a5
    2264:	00179793          	slli	a5,a5,0x1
    2268:	fdc42703          	lw	a4,-36(s0)
    226c:	00f707b3          	add	a5,a4,a5
    2270:	fd645703          	lhu	a4,-42(s0)
    2274:	00e79023          	sh	a4,0(a5)
    2278:	fec42783          	lw	a5,-20(s0)
    227c:	00178793          	addi	a5,a5,1
    2280:	fef42623          	sw	a5,-20(s0)
    2284:	fe442783          	lw	a5,-28(s0)
    2288:	00178793          	addi	a5,a5,1
    228c:	fef42223          	sw	a5,-28(s0)
    2290:	fe442703          	lw	a4,-28(s0)
    2294:	fe042783          	lw	a5,-32(s0)
    2298:	eef76ce3          	bltu	a4,a5,2190 <core_init_matrix+0xc8>
    229c:	fe842783          	lw	a5,-24(s0)
    22a0:	00178793          	addi	a5,a5,1
    22a4:	fef42423          	sw	a5,-24(s0)
    22a8:	fe842703          	lw	a4,-24(s0)
    22ac:	fe042783          	lw	a5,-32(s0)
    22b0:	ecf76ce3          	bltu	a4,a5,2188 <core_init_matrix+0xc0>
    22b4:	fc042783          	lw	a5,-64(s0)
    22b8:	fdc42703          	lw	a4,-36(s0)
    22bc:	00e7a223          	sw	a4,4(a5)
    22c0:	fc042783          	lw	a5,-64(s0)
    22c4:	fd842703          	lw	a4,-40(s0)
    22c8:	00e7a423          	sw	a4,8(a5)
    22cc:	fe042583          	lw	a1,-32(s0)
    22d0:	fe042503          	lw	a0,-32(s0)
    22d4:	57c020ef          	jal	ra,4850 <__mulsi3>
    22d8:	00050793          	mv	a5,a0
    22dc:	00179793          	slli	a5,a5,0x1
    22e0:	fd842703          	lw	a4,-40(s0)
    22e4:	00f707b3          	add	a5,a4,a5
    22e8:	fff78793          	addi	a5,a5,-1
    22ec:	ffc7f793          	andi	a5,a5,-4
    22f0:	00478793          	addi	a5,a5,4
    22f4:	00078713          	mv	a4,a5
    22f8:	fc042783          	lw	a5,-64(s0)
    22fc:	00e7a623          	sw	a4,12(a5)
    2300:	fe042703          	lw	a4,-32(s0)
    2304:	fc042783          	lw	a5,-64(s0)
    2308:	00e7a023          	sw	a4,0(a5)
    230c:	fe042783          	lw	a5,-32(s0)
    2310:	00078513          	mv	a0,a5
    2314:	03c12083          	lw	ra,60(sp)
    2318:	03812403          	lw	s0,56(sp)
    231c:	04010113          	addi	sp,sp,64
    2320:	00008067          	ret

00002324 <matrix_sum>:
    2324:	fc010113          	addi	sp,sp,-64
    2328:	02112e23          	sw	ra,60(sp)
    232c:	02812c23          	sw	s0,56(sp)
    2330:	04010413          	addi	s0,sp,64
    2334:	fca42623          	sw	a0,-52(s0)
    2338:	fcb42423          	sw	a1,-56(s0)
    233c:	00060793          	mv	a5,a2
    2340:	fcf41323          	sh	a5,-58(s0)
    2344:	fe042623          	sw	zero,-20(s0)
    2348:	fe042423          	sw	zero,-24(s0)
    234c:	fc042c23          	sw	zero,-40(s0)
    2350:	fe041323          	sh	zero,-26(s0)
    2354:	fe042023          	sw	zero,-32(s0)
    2358:	0cc0006f          	j	2424 <matrix_sum+0x100>
    235c:	fc042e23          	sw	zero,-36(s0)
    2360:	0ac0006f          	j	240c <matrix_sum+0xe8>
    2364:	fcc42583          	lw	a1,-52(s0)
    2368:	fe042503          	lw	a0,-32(s0)
    236c:	4e4020ef          	jal	ra,4850 <__mulsi3>
    2370:	00050793          	mv	a5,a0
    2374:	00078713          	mv	a4,a5
    2378:	fdc42783          	lw	a5,-36(s0)
    237c:	00f707b3          	add	a5,a4,a5
    2380:	00279793          	slli	a5,a5,0x2
    2384:	fc842703          	lw	a4,-56(s0)
    2388:	00f707b3          	add	a5,a4,a5
    238c:	0007a783          	lw	a5,0(a5)
    2390:	fcf42c23          	sw	a5,-40(s0)
    2394:	fec42703          	lw	a4,-20(s0)
    2398:	fd842783          	lw	a5,-40(s0)
    239c:	00f707b3          	add	a5,a4,a5
    23a0:	fef42623          	sw	a5,-20(s0)
    23a4:	fc641783          	lh	a5,-58(s0)
    23a8:	fec42703          	lw	a4,-20(s0)
    23ac:	02e7d063          	bge	a5,a4,23cc <matrix_sum+0xa8>
    23b0:	fe645783          	lhu	a5,-26(s0)
    23b4:	00a78793          	addi	a5,a5,10
    23b8:	01079793          	slli	a5,a5,0x10
    23bc:	0107d793          	srli	a5,a5,0x10
    23c0:	fef41323          	sh	a5,-26(s0)
    23c4:	fe042623          	sw	zero,-20(s0)
    23c8:	0300006f          	j	23f8 <matrix_sum+0xd4>
    23cc:	fd842703          	lw	a4,-40(s0)
    23d0:	fe842783          	lw	a5,-24(s0)
    23d4:	00e7a7b3          	slt	a5,a5,a4
    23d8:	0ff7f793          	andi	a5,a5,255
    23dc:	01079713          	slli	a4,a5,0x10
    23e0:	01075713          	srli	a4,a4,0x10
    23e4:	fe645783          	lhu	a5,-26(s0)
    23e8:	00f707b3          	add	a5,a4,a5
    23ec:	01079793          	slli	a5,a5,0x10
    23f0:	0107d793          	srli	a5,a5,0x10
    23f4:	fef41323          	sh	a5,-26(s0)
    23f8:	fd842783          	lw	a5,-40(s0)
    23fc:	fef42423          	sw	a5,-24(s0)
    2400:	fdc42783          	lw	a5,-36(s0)
    2404:	00178793          	addi	a5,a5,1
    2408:	fcf42e23          	sw	a5,-36(s0)
    240c:	fdc42703          	lw	a4,-36(s0)
    2410:	fcc42783          	lw	a5,-52(s0)
    2414:	f4f768e3          	bltu	a4,a5,2364 <matrix_sum+0x40>
    2418:	fe042783          	lw	a5,-32(s0)
    241c:	00178793          	addi	a5,a5,1
    2420:	fef42023          	sw	a5,-32(s0)
    2424:	fe042703          	lw	a4,-32(s0)
    2428:	fcc42783          	lw	a5,-52(s0)
    242c:	f2f768e3          	bltu	a4,a5,235c <matrix_sum+0x38>
    2430:	fe641783          	lh	a5,-26(s0)
    2434:	00078513          	mv	a0,a5
    2438:	03c12083          	lw	ra,60(sp)
    243c:	03812403          	lw	s0,56(sp)
    2440:	04010113          	addi	sp,sp,64
    2444:	00008067          	ret

00002448 <matrix_mul_const>:
    2448:	fc010113          	addi	sp,sp,-64
    244c:	02112e23          	sw	ra,60(sp)
    2450:	02812c23          	sw	s0,56(sp)
    2454:	02912a23          	sw	s1,52(sp)
    2458:	03212823          	sw	s2,48(sp)
    245c:	03312623          	sw	s3,44(sp)
    2460:	04010413          	addi	s0,sp,64
    2464:	fca42623          	sw	a0,-52(s0)
    2468:	fcb42423          	sw	a1,-56(s0)
    246c:	fcc42223          	sw	a2,-60(s0)
    2470:	00068793          	mv	a5,a3
    2474:	fcf41123          	sh	a5,-62(s0)
    2478:	fc042e23          	sw	zero,-36(s0)
    247c:	0a00006f          	j	251c <matrix_mul_const+0xd4>
    2480:	fc042c23          	sw	zero,-40(s0)
    2484:	0800006f          	j	2504 <matrix_mul_const+0xbc>
    2488:	fcc42583          	lw	a1,-52(s0)
    248c:	fdc42503          	lw	a0,-36(s0)
    2490:	3c0020ef          	jal	ra,4850 <__mulsi3>
    2494:	00050793          	mv	a5,a0
    2498:	00078713          	mv	a4,a5
    249c:	fd842783          	lw	a5,-40(s0)
    24a0:	00f707b3          	add	a5,a4,a5
    24a4:	00179793          	slli	a5,a5,0x1
    24a8:	fc442703          	lw	a4,-60(s0)
    24ac:	00f707b3          	add	a5,a4,a5
    24b0:	00079783          	lh	a5,0(a5)
    24b4:	00078993          	mv	s3,a5
    24b8:	fc241903          	lh	s2,-62(s0)
    24bc:	fcc42583          	lw	a1,-52(s0)
    24c0:	fdc42503          	lw	a0,-36(s0)
    24c4:	38c020ef          	jal	ra,4850 <__mulsi3>
    24c8:	00050793          	mv	a5,a0
    24cc:	00078713          	mv	a4,a5
    24d0:	fd842783          	lw	a5,-40(s0)
    24d4:	00f707b3          	add	a5,a4,a5
    24d8:	00279793          	slli	a5,a5,0x2
    24dc:	fc842703          	lw	a4,-56(s0)
    24e0:	00f704b3          	add	s1,a4,a5
    24e4:	00090593          	mv	a1,s2
    24e8:	00098513          	mv	a0,s3
    24ec:	364020ef          	jal	ra,4850 <__mulsi3>
    24f0:	00050793          	mv	a5,a0
    24f4:	00f4a023          	sw	a5,0(s1)
    24f8:	fd842783          	lw	a5,-40(s0)
    24fc:	00178793          	addi	a5,a5,1
    2500:	fcf42c23          	sw	a5,-40(s0)
    2504:	fd842703          	lw	a4,-40(s0)
    2508:	fcc42783          	lw	a5,-52(s0)
    250c:	f6f76ee3          	bltu	a4,a5,2488 <matrix_mul_const+0x40>
    2510:	fdc42783          	lw	a5,-36(s0)
    2514:	00178793          	addi	a5,a5,1
    2518:	fcf42e23          	sw	a5,-36(s0)
    251c:	fdc42703          	lw	a4,-36(s0)
    2520:	fcc42783          	lw	a5,-52(s0)
    2524:	f4f76ee3          	bltu	a4,a5,2480 <matrix_mul_const+0x38>
    2528:	00000013          	nop
    252c:	00000013          	nop
    2530:	03c12083          	lw	ra,60(sp)
    2534:	03812403          	lw	s0,56(sp)
    2538:	03412483          	lw	s1,52(sp)
    253c:	03012903          	lw	s2,48(sp)
    2540:	02c12983          	lw	s3,44(sp)
    2544:	04010113          	addi	sp,sp,64
    2548:	00008067          	ret

0000254c <matrix_add_const>:
    254c:	fd010113          	addi	sp,sp,-48
    2550:	02112623          	sw	ra,44(sp)
    2554:	02812423          	sw	s0,40(sp)
    2558:	02912223          	sw	s1,36(sp)
    255c:	03010413          	addi	s0,sp,48
    2560:	fca42e23          	sw	a0,-36(s0)
    2564:	fcb42c23          	sw	a1,-40(s0)
    2568:	00060793          	mv	a5,a2
    256c:	fcf41b23          	sh	a5,-42(s0)
    2570:	fe042623          	sw	zero,-20(s0)
    2574:	0a80006f          	j	261c <matrix_add_const+0xd0>
    2578:	fe042423          	sw	zero,-24(s0)
    257c:	0880006f          	j	2604 <matrix_add_const+0xb8>
    2580:	fdc42583          	lw	a1,-36(s0)
    2584:	fec42503          	lw	a0,-20(s0)
    2588:	2c8020ef          	jal	ra,4850 <__mulsi3>
    258c:	00050793          	mv	a5,a0
    2590:	00078713          	mv	a4,a5
    2594:	fe842783          	lw	a5,-24(s0)
    2598:	00f707b3          	add	a5,a4,a5
    259c:	00179793          	slli	a5,a5,0x1
    25a0:	fd842703          	lw	a4,-40(s0)
    25a4:	00f707b3          	add	a5,a4,a5
    25a8:	00079783          	lh	a5,0(a5)
    25ac:	01079713          	slli	a4,a5,0x10
    25b0:	01075713          	srli	a4,a4,0x10
    25b4:	fd645783          	lhu	a5,-42(s0)
    25b8:	00f707b3          	add	a5,a4,a5
    25bc:	01079493          	slli	s1,a5,0x10
    25c0:	0104d493          	srli	s1,s1,0x10
    25c4:	fdc42583          	lw	a1,-36(s0)
    25c8:	fec42503          	lw	a0,-20(s0)
    25cc:	284020ef          	jal	ra,4850 <__mulsi3>
    25d0:	00050793          	mv	a5,a0
    25d4:	00078713          	mv	a4,a5
    25d8:	fe842783          	lw	a5,-24(s0)
    25dc:	00f707b3          	add	a5,a4,a5
    25e0:	00179793          	slli	a5,a5,0x1
    25e4:	fd842703          	lw	a4,-40(s0)
    25e8:	00f707b3          	add	a5,a4,a5
    25ec:	01049713          	slli	a4,s1,0x10
    25f0:	41075713          	srai	a4,a4,0x10
    25f4:	00e79023          	sh	a4,0(a5)
    25f8:	fe842783          	lw	a5,-24(s0)
    25fc:	00178793          	addi	a5,a5,1
    2600:	fef42423          	sw	a5,-24(s0)
    2604:	fe842703          	lw	a4,-24(s0)
    2608:	fdc42783          	lw	a5,-36(s0)
    260c:	f6f76ae3          	bltu	a4,a5,2580 <matrix_add_const+0x34>
    2610:	fec42783          	lw	a5,-20(s0)
    2614:	00178793          	addi	a5,a5,1
    2618:	fef42623          	sw	a5,-20(s0)
    261c:	fec42703          	lw	a4,-20(s0)
    2620:	fdc42783          	lw	a5,-36(s0)
    2624:	f4f76ae3          	bltu	a4,a5,2578 <matrix_add_const+0x2c>
    2628:	00000013          	nop
    262c:	00000013          	nop
    2630:	02c12083          	lw	ra,44(sp)
    2634:	02812403          	lw	s0,40(sp)
    2638:	02412483          	lw	s1,36(sp)
    263c:	03010113          	addi	sp,sp,48
    2640:	00008067          	ret

00002644 <matrix_mul_vect>:
    2644:	fd010113          	addi	sp,sp,-48
    2648:	02112623          	sw	ra,44(sp)
    264c:	02812423          	sw	s0,40(sp)
    2650:	02912223          	sw	s1,36(sp)
    2654:	03010413          	addi	s0,sp,48
    2658:	fca42e23          	sw	a0,-36(s0)
    265c:	fcb42c23          	sw	a1,-40(s0)
    2660:	fcc42a23          	sw	a2,-44(s0)
    2664:	fcd42823          	sw	a3,-48(s0)
    2668:	fe042623          	sw	zero,-20(s0)
    266c:	0c80006f          	j	2734 <matrix_mul_vect+0xf0>
    2670:	fec42783          	lw	a5,-20(s0)
    2674:	00279793          	slli	a5,a5,0x2
    2678:	fd842703          	lw	a4,-40(s0)
    267c:	00f707b3          	add	a5,a4,a5
    2680:	0007a023          	sw	zero,0(a5)
    2684:	fe042423          	sw	zero,-24(s0)
    2688:	0940006f          	j	271c <matrix_mul_vect+0xd8>
    268c:	fec42783          	lw	a5,-20(s0)
    2690:	00279793          	slli	a5,a5,0x2
    2694:	fd842703          	lw	a4,-40(s0)
    2698:	00f707b3          	add	a5,a4,a5
    269c:	0007a483          	lw	s1,0(a5)
    26a0:	fdc42583          	lw	a1,-36(s0)
    26a4:	fec42503          	lw	a0,-20(s0)
    26a8:	1a8020ef          	jal	ra,4850 <__mulsi3>
    26ac:	00050793          	mv	a5,a0
    26b0:	00078713          	mv	a4,a5
    26b4:	fe842783          	lw	a5,-24(s0)
    26b8:	00f707b3          	add	a5,a4,a5
    26bc:	00179793          	slli	a5,a5,0x1
    26c0:	fd442703          	lw	a4,-44(s0)
    26c4:	00f707b3          	add	a5,a4,a5
    26c8:	00079783          	lh	a5,0(a5)
    26cc:	00078693          	mv	a3,a5
    26d0:	fe842783          	lw	a5,-24(s0)
    26d4:	00179793          	slli	a5,a5,0x1
    26d8:	fd042703          	lw	a4,-48(s0)
    26dc:	00f707b3          	add	a5,a4,a5
    26e0:	00079783          	lh	a5,0(a5)
    26e4:	00078593          	mv	a1,a5
    26e8:	00068513          	mv	a0,a3
    26ec:	164020ef          	jal	ra,4850 <__mulsi3>
    26f0:	00050793          	mv	a5,a0
    26f4:	00078693          	mv	a3,a5
    26f8:	fec42783          	lw	a5,-20(s0)
    26fc:	00279793          	slli	a5,a5,0x2
    2700:	fd842703          	lw	a4,-40(s0)
    2704:	00f707b3          	add	a5,a4,a5
    2708:	00d48733          	add	a4,s1,a3
    270c:	00e7a023          	sw	a4,0(a5)
    2710:	fe842783          	lw	a5,-24(s0)
    2714:	00178793          	addi	a5,a5,1
    2718:	fef42423          	sw	a5,-24(s0)
    271c:	fe842703          	lw	a4,-24(s0)
    2720:	fdc42783          	lw	a5,-36(s0)
    2724:	f6f764e3          	bltu	a4,a5,268c <matrix_mul_vect+0x48>
    2728:	fec42783          	lw	a5,-20(s0)
    272c:	00178793          	addi	a5,a5,1
    2730:	fef42623          	sw	a5,-20(s0)
    2734:	fec42703          	lw	a4,-20(s0)
    2738:	fdc42783          	lw	a5,-36(s0)
    273c:	f2f76ae3          	bltu	a4,a5,2670 <matrix_mul_vect+0x2c>
    2740:	00000013          	nop
    2744:	00000013          	nop
    2748:	02c12083          	lw	ra,44(sp)
    274c:	02812403          	lw	s0,40(sp)
    2750:	02412483          	lw	s1,36(sp)
    2754:	03010113          	addi	sp,sp,48
    2758:	00008067          	ret

0000275c <matrix_mul_matrix>:
    275c:	fd010113          	addi	sp,sp,-48
    2760:	02112623          	sw	ra,44(sp)
    2764:	02812423          	sw	s0,40(sp)
    2768:	02912223          	sw	s1,36(sp)
    276c:	03212023          	sw	s2,32(sp)
    2770:	03010413          	addi	s0,sp,48
    2774:	fca42e23          	sw	a0,-36(s0)
    2778:	fcb42c23          	sw	a1,-40(s0)
    277c:	fcc42a23          	sw	a2,-44(s0)
    2780:	fcd42823          	sw	a3,-48(s0)
    2784:	fe042623          	sw	zero,-20(s0)
    2788:	1480006f          	j	28d0 <matrix_mul_matrix+0x174>
    278c:	fe042423          	sw	zero,-24(s0)
    2790:	1280006f          	j	28b8 <matrix_mul_matrix+0x15c>
    2794:	fdc42583          	lw	a1,-36(s0)
    2798:	fec42503          	lw	a0,-20(s0)
    279c:	0b4020ef          	jal	ra,4850 <__mulsi3>
    27a0:	00050793          	mv	a5,a0
    27a4:	00078713          	mv	a4,a5
    27a8:	fe842783          	lw	a5,-24(s0)
    27ac:	00f707b3          	add	a5,a4,a5
    27b0:	00279793          	slli	a5,a5,0x2
    27b4:	fd842703          	lw	a4,-40(s0)
    27b8:	00f707b3          	add	a5,a4,a5
    27bc:	0007a023          	sw	zero,0(a5)
    27c0:	fe042223          	sw	zero,-28(s0)
    27c4:	0dc0006f          	j	28a0 <matrix_mul_matrix+0x144>
    27c8:	fdc42583          	lw	a1,-36(s0)
    27cc:	fec42503          	lw	a0,-20(s0)
    27d0:	080020ef          	jal	ra,4850 <__mulsi3>
    27d4:	00050793          	mv	a5,a0
    27d8:	00078713          	mv	a4,a5
    27dc:	fe842783          	lw	a5,-24(s0)
    27e0:	00f707b3          	add	a5,a4,a5
    27e4:	00279793          	slli	a5,a5,0x2
    27e8:	fd842703          	lw	a4,-40(s0)
    27ec:	00f707b3          	add	a5,a4,a5
    27f0:	0007a483          	lw	s1,0(a5)
    27f4:	fdc42583          	lw	a1,-36(s0)
    27f8:	fec42503          	lw	a0,-20(s0)
    27fc:	054020ef          	jal	ra,4850 <__mulsi3>
    2800:	00050793          	mv	a5,a0
    2804:	00078713          	mv	a4,a5
    2808:	fe442783          	lw	a5,-28(s0)
    280c:	00f707b3          	add	a5,a4,a5
    2810:	00179793          	slli	a5,a5,0x1
    2814:	fd442703          	lw	a4,-44(s0)
    2818:	00f707b3          	add	a5,a4,a5
    281c:	00079783          	lh	a5,0(a5)
    2820:	00078913          	mv	s2,a5
    2824:	fdc42583          	lw	a1,-36(s0)
    2828:	fe442503          	lw	a0,-28(s0)
    282c:	024020ef          	jal	ra,4850 <__mulsi3>
    2830:	00050793          	mv	a5,a0
    2834:	00078713          	mv	a4,a5
    2838:	fe842783          	lw	a5,-24(s0)
    283c:	00f707b3          	add	a5,a4,a5
    2840:	00179793          	slli	a5,a5,0x1
    2844:	fd042703          	lw	a4,-48(s0)
    2848:	00f707b3          	add	a5,a4,a5
    284c:	00079783          	lh	a5,0(a5)
    2850:	00078593          	mv	a1,a5
    2854:	00090513          	mv	a0,s2
    2858:	7f9010ef          	jal	ra,4850 <__mulsi3>
    285c:	00050793          	mv	a5,a0
    2860:	00078913          	mv	s2,a5
    2864:	fdc42583          	lw	a1,-36(s0)
    2868:	fec42503          	lw	a0,-20(s0)
    286c:	7e5010ef          	jal	ra,4850 <__mulsi3>
    2870:	00050793          	mv	a5,a0
    2874:	00078713          	mv	a4,a5
    2878:	fe842783          	lw	a5,-24(s0)
    287c:	00f707b3          	add	a5,a4,a5
    2880:	00279793          	slli	a5,a5,0x2
    2884:	fd842703          	lw	a4,-40(s0)
    2888:	00f707b3          	add	a5,a4,a5
    288c:	01248733          	add	a4,s1,s2
    2890:	00e7a023          	sw	a4,0(a5)
    2894:	fe442783          	lw	a5,-28(s0)
    2898:	00178793          	addi	a5,a5,1
    289c:	fef42223          	sw	a5,-28(s0)
    28a0:	fe442703          	lw	a4,-28(s0)
    28a4:	fdc42783          	lw	a5,-36(s0)
    28a8:	f2f760e3          	bltu	a4,a5,27c8 <matrix_mul_matrix+0x6c>
    28ac:	fe842783          	lw	a5,-24(s0)
    28b0:	00178793          	addi	a5,a5,1
    28b4:	fef42423          	sw	a5,-24(s0)
    28b8:	fe842703          	lw	a4,-24(s0)
    28bc:	fdc42783          	lw	a5,-36(s0)
    28c0:	ecf76ae3          	bltu	a4,a5,2794 <matrix_mul_matrix+0x38>
    28c4:	fec42783          	lw	a5,-20(s0)
    28c8:	00178793          	addi	a5,a5,1
    28cc:	fef42623          	sw	a5,-20(s0)
    28d0:	fec42703          	lw	a4,-20(s0)
    28d4:	fdc42783          	lw	a5,-36(s0)
    28d8:	eaf76ae3          	bltu	a4,a5,278c <matrix_mul_matrix+0x30>
    28dc:	00000013          	nop
    28e0:	00000013          	nop
    28e4:	02c12083          	lw	ra,44(sp)
    28e8:	02812403          	lw	s0,40(sp)
    28ec:	02412483          	lw	s1,36(sp)
    28f0:	02012903          	lw	s2,32(sp)
    28f4:	03010113          	addi	sp,sp,48
    28f8:	00008067          	ret

000028fc <matrix_mul_matrix_bitextract>:
    28fc:	fd010113          	addi	sp,sp,-48
    2900:	02112623          	sw	ra,44(sp)
    2904:	02812423          	sw	s0,40(sp)
    2908:	02912223          	sw	s1,36(sp)
    290c:	03010413          	addi	s0,sp,48
    2910:	fca42e23          	sw	a0,-36(s0)
    2914:	fcb42c23          	sw	a1,-40(s0)
    2918:	fcc42a23          	sw	a2,-44(s0)
    291c:	fcd42823          	sw	a3,-48(s0)
    2920:	fe042623          	sw	zero,-20(s0)
    2924:	1780006f          	j	2a9c <matrix_mul_matrix_bitextract+0x1a0>
    2928:	fe042423          	sw	zero,-24(s0)
    292c:	1580006f          	j	2a84 <matrix_mul_matrix_bitextract+0x188>
    2930:	fdc42583          	lw	a1,-36(s0)
    2934:	fec42503          	lw	a0,-20(s0)
    2938:	719010ef          	jal	ra,4850 <__mulsi3>
    293c:	00050793          	mv	a5,a0
    2940:	00078713          	mv	a4,a5
    2944:	fe842783          	lw	a5,-24(s0)
    2948:	00f707b3          	add	a5,a4,a5
    294c:	00279793          	slli	a5,a5,0x2
    2950:	fd842703          	lw	a4,-40(s0)
    2954:	00f707b3          	add	a5,a4,a5
    2958:	0007a023          	sw	zero,0(a5)
    295c:	fe042223          	sw	zero,-28(s0)
    2960:	10c0006f          	j	2a6c <matrix_mul_matrix_bitextract+0x170>
    2964:	fdc42583          	lw	a1,-36(s0)
    2968:	fec42503          	lw	a0,-20(s0)
    296c:	6e5010ef          	jal	ra,4850 <__mulsi3>
    2970:	00050793          	mv	a5,a0
    2974:	00078713          	mv	a4,a5
    2978:	fe442783          	lw	a5,-28(s0)
    297c:	00f707b3          	add	a5,a4,a5
    2980:	00179793          	slli	a5,a5,0x1
    2984:	fd442703          	lw	a4,-44(s0)
    2988:	00f707b3          	add	a5,a4,a5
    298c:	00079783          	lh	a5,0(a5)
    2990:	00078493          	mv	s1,a5
    2994:	fdc42583          	lw	a1,-36(s0)
    2998:	fe442503          	lw	a0,-28(s0)
    299c:	6b5010ef          	jal	ra,4850 <__mulsi3>
    29a0:	00050793          	mv	a5,a0
    29a4:	00078713          	mv	a4,a5
    29a8:	fe842783          	lw	a5,-24(s0)
    29ac:	00f707b3          	add	a5,a4,a5
    29b0:	00179793          	slli	a5,a5,0x1
    29b4:	fd042703          	lw	a4,-48(s0)
    29b8:	00f707b3          	add	a5,a4,a5
    29bc:	00079783          	lh	a5,0(a5)
    29c0:	00078593          	mv	a1,a5
    29c4:	00048513          	mv	a0,s1
    29c8:	689010ef          	jal	ra,4850 <__mulsi3>
    29cc:	00050793          	mv	a5,a0
    29d0:	fef42023          	sw	a5,-32(s0)
    29d4:	fdc42583          	lw	a1,-36(s0)
    29d8:	fec42503          	lw	a0,-20(s0)
    29dc:	675010ef          	jal	ra,4850 <__mulsi3>
    29e0:	00050793          	mv	a5,a0
    29e4:	00078713          	mv	a4,a5
    29e8:	fe842783          	lw	a5,-24(s0)
    29ec:	00f707b3          	add	a5,a4,a5
    29f0:	00279793          	slli	a5,a5,0x2
    29f4:	fd842703          	lw	a4,-40(s0)
    29f8:	00f707b3          	add	a5,a4,a5
    29fc:	0007a783          	lw	a5,0(a5)
    2a00:	00078493          	mv	s1,a5
    2a04:	fe042783          	lw	a5,-32(s0)
    2a08:	4027d793          	srai	a5,a5,0x2
    2a0c:	00f7f713          	andi	a4,a5,15
    2a10:	fe042783          	lw	a5,-32(s0)
    2a14:	4057d793          	srai	a5,a5,0x5
    2a18:	07f7f793          	andi	a5,a5,127
    2a1c:	00078593          	mv	a1,a5
    2a20:	00070513          	mv	a0,a4
    2a24:	62d010ef          	jal	ra,4850 <__mulsi3>
    2a28:	00050793          	mv	a5,a0
    2a2c:	00f484b3          	add	s1,s1,a5
    2a30:	fdc42583          	lw	a1,-36(s0)
    2a34:	fec42503          	lw	a0,-20(s0)
    2a38:	619010ef          	jal	ra,4850 <__mulsi3>
    2a3c:	00050793          	mv	a5,a0
    2a40:	00078713          	mv	a4,a5
    2a44:	fe842783          	lw	a5,-24(s0)
    2a48:	00f707b3          	add	a5,a4,a5
    2a4c:	00279793          	slli	a5,a5,0x2
    2a50:	fd842703          	lw	a4,-40(s0)
    2a54:	00f707b3          	add	a5,a4,a5
    2a58:	00048713          	mv	a4,s1
    2a5c:	00e7a023          	sw	a4,0(a5)
    2a60:	fe442783          	lw	a5,-28(s0)
    2a64:	00178793          	addi	a5,a5,1
    2a68:	fef42223          	sw	a5,-28(s0)
    2a6c:	fe442703          	lw	a4,-28(s0)
    2a70:	fdc42783          	lw	a5,-36(s0)
    2a74:	eef768e3          	bltu	a4,a5,2964 <matrix_mul_matrix_bitextract+0x68>
    2a78:	fe842783          	lw	a5,-24(s0)
    2a7c:	00178793          	addi	a5,a5,1
    2a80:	fef42423          	sw	a5,-24(s0)
    2a84:	fe842703          	lw	a4,-24(s0)
    2a88:	fdc42783          	lw	a5,-36(s0)
    2a8c:	eaf762e3          	bltu	a4,a5,2930 <matrix_mul_matrix_bitextract+0x34>
    2a90:	fec42783          	lw	a5,-20(s0)
    2a94:	00178793          	addi	a5,a5,1
    2a98:	fef42623          	sw	a5,-20(s0)
    2a9c:	fec42703          	lw	a4,-20(s0)
    2aa0:	fdc42783          	lw	a5,-36(s0)
    2aa4:	e8f762e3          	bltu	a4,a5,2928 <matrix_mul_matrix_bitextract+0x2c>
    2aa8:	00000013          	nop
    2aac:	00000013          	nop
    2ab0:	02c12083          	lw	ra,44(sp)
    2ab4:	02812403          	lw	s0,40(sp)
    2ab8:	02412483          	lw	s1,36(sp)
    2abc:	03010113          	addi	sp,sp,48
    2ac0:	00008067          	ret

00002ac4 <core_bench_state>:
    2ac4:	f9010113          	addi	sp,sp,-112
    2ac8:	06112623          	sw	ra,108(sp)
    2acc:	06812423          	sw	s0,104(sp)
    2ad0:	07010413          	addi	s0,sp,112
    2ad4:	f8a42e23          	sw	a0,-100(s0)
    2ad8:	f8b42c23          	sw	a1,-104(s0)
    2adc:	00060593          	mv	a1,a2
    2ae0:	00068613          	mv	a2,a3
    2ae4:	00070693          	mv	a3,a4
    2ae8:	00078713          	mv	a4,a5
    2aec:	00058793          	mv	a5,a1
    2af0:	f8f41b23          	sh	a5,-106(s0)
    2af4:	00060793          	mv	a5,a2
    2af8:	f8f41a23          	sh	a5,-108(s0)
    2afc:	00068793          	mv	a5,a3
    2b00:	f8f41923          	sh	a5,-110(s0)
    2b04:	00070793          	mv	a5,a4
    2b08:	f8f41823          	sh	a5,-112(s0)
    2b0c:	f9842783          	lw	a5,-104(s0)
    2b10:	faf42023          	sw	a5,-96(s0)
    2b14:	fe042623          	sw	zero,-20(s0)
    2b18:	04c0006f          	j	2b64 <core_bench_state+0xa0>
    2b1c:	fec42783          	lw	a5,-20(s0)
    2b20:	00279793          	slli	a5,a5,0x2
    2b24:	ff040713          	addi	a4,s0,-16
    2b28:	00f707b3          	add	a5,a4,a5
    2b2c:	fa07aa23          	sw	zero,-76(a5)
    2b30:	fec42783          	lw	a5,-20(s0)
    2b34:	00279793          	slli	a5,a5,0x2
    2b38:	ff040713          	addi	a4,s0,-16
    2b3c:	00f707b3          	add	a5,a4,a5
    2b40:	fb47a703          	lw	a4,-76(a5)
    2b44:	fec42783          	lw	a5,-20(s0)
    2b48:	00279793          	slli	a5,a5,0x2
    2b4c:	ff040693          	addi	a3,s0,-16
    2b50:	00f687b3          	add	a5,a3,a5
    2b54:	fce7aa23          	sw	a4,-44(a5)
    2b58:	fec42783          	lw	a5,-20(s0)
    2b5c:	00178793          	addi	a5,a5,1
    2b60:	fef42623          	sw	a5,-20(s0)
    2b64:	fec42703          	lw	a4,-20(s0)
    2b68:	00700793          	li	a5,7
    2b6c:	fae7f8e3          	bgeu	a5,a4,2b1c <core_bench_state+0x58>
    2b70:	0480006f          	j	2bb8 <core_bench_state+0xf4>
    2b74:	fa440713          	addi	a4,s0,-92
    2b78:	fa040793          	addi	a5,s0,-96
    2b7c:	00070593          	mv	a1,a4
    2b80:	00078513          	mv	a0,a5
    2b84:	4b4000ef          	jal	ra,3038 <core_state_transition>
    2b88:	fea42223          	sw	a0,-28(s0)
    2b8c:	fe442783          	lw	a5,-28(s0)
    2b90:	00279793          	slli	a5,a5,0x2
    2b94:	ff040713          	addi	a4,s0,-16
    2b98:	00f707b3          	add	a5,a4,a5
    2b9c:	fd47a783          	lw	a5,-44(a5)
    2ba0:	00178713          	addi	a4,a5,1
    2ba4:	fe442783          	lw	a5,-28(s0)
    2ba8:	00279793          	slli	a5,a5,0x2
    2bac:	ff040693          	addi	a3,s0,-16
    2bb0:	00f687b3          	add	a5,a3,a5
    2bb4:	fce7aa23          	sw	a4,-44(a5)
    2bb8:	fa042783          	lw	a5,-96(s0)
    2bbc:	0007c783          	lbu	a5,0(a5)
    2bc0:	fa079ae3          	bnez	a5,2b74 <core_bench_state+0xb0>
    2bc4:	f9842783          	lw	a5,-104(s0)
    2bc8:	faf42023          	sw	a5,-96(s0)
    2bcc:	0440006f          	j	2c10 <core_bench_state+0x14c>
    2bd0:	fa042783          	lw	a5,-96(s0)
    2bd4:	0007c703          	lbu	a4,0(a5)
    2bd8:	02c00793          	li	a5,44
    2bdc:	02f70263          	beq	a4,a5,2c00 <core_bench_state+0x13c>
    2be0:	fa042783          	lw	a5,-96(s0)
    2be4:	0007c683          	lbu	a3,0(a5)
    2be8:	f9645783          	lhu	a5,-106(s0)
    2bec:	0ff7f713          	andi	a4,a5,255
    2bf0:	fa042783          	lw	a5,-96(s0)
    2bf4:	00e6c733          	xor	a4,a3,a4
    2bf8:	0ff77713          	andi	a4,a4,255
    2bfc:	00e78023          	sb	a4,0(a5)
    2c00:	fa042703          	lw	a4,-96(s0)
    2c04:	f9241783          	lh	a5,-110(s0)
    2c08:	00f707b3          	add	a5,a4,a5
    2c0c:	faf42023          	sw	a5,-96(s0)
    2c10:	f9842703          	lw	a4,-104(s0)
    2c14:	f9c42783          	lw	a5,-100(s0)
    2c18:	00f70733          	add	a4,a4,a5
    2c1c:	fa042783          	lw	a5,-96(s0)
    2c20:	fae7e8e3          	bltu	a5,a4,2bd0 <core_bench_state+0x10c>
    2c24:	f9842783          	lw	a5,-104(s0)
    2c28:	faf42023          	sw	a5,-96(s0)
    2c2c:	0480006f          	j	2c74 <core_bench_state+0x1b0>
    2c30:	fa440713          	addi	a4,s0,-92
    2c34:	fa040793          	addi	a5,s0,-96
    2c38:	00070593          	mv	a1,a4
    2c3c:	00078513          	mv	a0,a5
    2c40:	3f8000ef          	jal	ra,3038 <core_state_transition>
    2c44:	fea42423          	sw	a0,-24(s0)
    2c48:	fe842783          	lw	a5,-24(s0)
    2c4c:	00279793          	slli	a5,a5,0x2
    2c50:	ff040713          	addi	a4,s0,-16
    2c54:	00f707b3          	add	a5,a4,a5
    2c58:	fd47a783          	lw	a5,-44(a5)
    2c5c:	00178713          	addi	a4,a5,1
    2c60:	fe842783          	lw	a5,-24(s0)
    2c64:	00279793          	slli	a5,a5,0x2
    2c68:	ff040693          	addi	a3,s0,-16
    2c6c:	00f687b3          	add	a5,a3,a5
    2c70:	fce7aa23          	sw	a4,-44(a5)
    2c74:	fa042783          	lw	a5,-96(s0)
    2c78:	0007c783          	lbu	a5,0(a5)
    2c7c:	fa079ae3          	bnez	a5,2c30 <core_bench_state+0x16c>
    2c80:	f9842783          	lw	a5,-104(s0)
    2c84:	faf42023          	sw	a5,-96(s0)
    2c88:	0440006f          	j	2ccc <core_bench_state+0x208>
    2c8c:	fa042783          	lw	a5,-96(s0)
    2c90:	0007c703          	lbu	a4,0(a5)
    2c94:	02c00793          	li	a5,44
    2c98:	02f70263          	beq	a4,a5,2cbc <core_bench_state+0x1f8>
    2c9c:	fa042783          	lw	a5,-96(s0)
    2ca0:	0007c683          	lbu	a3,0(a5)
    2ca4:	f9445783          	lhu	a5,-108(s0)
    2ca8:	0ff7f713          	andi	a4,a5,255
    2cac:	fa042783          	lw	a5,-96(s0)
    2cb0:	00e6c733          	xor	a4,a3,a4
    2cb4:	0ff77713          	andi	a4,a4,255
    2cb8:	00e78023          	sb	a4,0(a5)
    2cbc:	fa042703          	lw	a4,-96(s0)
    2cc0:	f9241783          	lh	a5,-110(s0)
    2cc4:	00f707b3          	add	a5,a4,a5
    2cc8:	faf42023          	sw	a5,-96(s0)
    2ccc:	f9842703          	lw	a4,-104(s0)
    2cd0:	f9c42783          	lw	a5,-100(s0)
    2cd4:	00f70733          	add	a4,a4,a5
    2cd8:	fa042783          	lw	a5,-96(s0)
    2cdc:	fae7e8e3          	bltu	a5,a4,2c8c <core_bench_state+0x1c8>
    2ce0:	fe042623          	sw	zero,-20(s0)
    2ce4:	0680006f          	j	2d4c <core_bench_state+0x288>
    2ce8:	fec42783          	lw	a5,-20(s0)
    2cec:	00279793          	slli	a5,a5,0x2
    2cf0:	ff040713          	addi	a4,s0,-16
    2cf4:	00f707b3          	add	a5,a4,a5
    2cf8:	fd47a783          	lw	a5,-44(a5)
    2cfc:	f9045703          	lhu	a4,-112(s0)
    2d00:	00070593          	mv	a1,a4
    2d04:	00078513          	mv	a0,a5
    2d08:	0e5000ef          	jal	ra,35ec <crcu32>
    2d0c:	00050793          	mv	a5,a0
    2d10:	f8f41823          	sh	a5,-112(s0)
    2d14:	fec42783          	lw	a5,-20(s0)
    2d18:	00279793          	slli	a5,a5,0x2
    2d1c:	ff040713          	addi	a4,s0,-16
    2d20:	00f707b3          	add	a5,a4,a5
    2d24:	fb47a783          	lw	a5,-76(a5)
    2d28:	f9045703          	lhu	a4,-112(s0)
    2d2c:	00070593          	mv	a1,a4
    2d30:	00078513          	mv	a0,a5
    2d34:	0b9000ef          	jal	ra,35ec <crcu32>
    2d38:	00050793          	mv	a5,a0
    2d3c:	f8f41823          	sh	a5,-112(s0)
    2d40:	fec42783          	lw	a5,-20(s0)
    2d44:	00178793          	addi	a5,a5,1
    2d48:	fef42623          	sw	a5,-20(s0)
    2d4c:	fec42703          	lw	a4,-20(s0)
    2d50:	00700793          	li	a5,7
    2d54:	f8e7fae3          	bgeu	a5,a4,2ce8 <core_bench_state+0x224>
    2d58:	f9045783          	lhu	a5,-112(s0)
    2d5c:	00078513          	mv	a0,a5
    2d60:	06c12083          	lw	ra,108(sp)
    2d64:	06812403          	lw	s0,104(sp)
    2d68:	07010113          	addi	sp,sp,112
    2d6c:	00008067          	ret

00002d70 <core_init_state>:
    2d70:	fd010113          	addi	sp,sp,-48
    2d74:	02812623          	sw	s0,44(sp)
    2d78:	03010413          	addi	s0,sp,48
    2d7c:	fca42e23          	sw	a0,-36(s0)
    2d80:	00058793          	mv	a5,a1
    2d84:	fcc42a23          	sw	a2,-44(s0)
    2d88:	fcf41d23          	sh	a5,-38(s0)
    2d8c:	fe042623          	sw	zero,-20(s0)
    2d90:	fe042423          	sw	zero,-24(s0)
    2d94:	fe042023          	sw	zero,-32(s0)
    2d98:	fdc42783          	lw	a5,-36(s0)
    2d9c:	fff78793          	addi	a5,a5,-1
    2da0:	fcf42e23          	sw	a5,-36(s0)
    2da4:	fe042423          	sw	zero,-24(s0)
    2da8:	1dc0006f          	j	2f84 <core_init_state+0x214>
    2dac:	fe842783          	lw	a5,-24(s0)
    2db0:	06078e63          	beqz	a5,2e2c <core_init_state+0xbc>
    2db4:	fe042223          	sw	zero,-28(s0)
    2db8:	0380006f          	j	2df0 <core_init_state+0x80>
    2dbc:	fe042703          	lw	a4,-32(s0)
    2dc0:	fe442783          	lw	a5,-28(s0)
    2dc4:	00f70733          	add	a4,a4,a5
    2dc8:	fec42683          	lw	a3,-20(s0)
    2dcc:	fe442783          	lw	a5,-28(s0)
    2dd0:	00f687b3          	add	a5,a3,a5
    2dd4:	fd442683          	lw	a3,-44(s0)
    2dd8:	00f687b3          	add	a5,a3,a5
    2ddc:	00074703          	lbu	a4,0(a4)
    2de0:	00e78023          	sb	a4,0(a5)
    2de4:	fe442783          	lw	a5,-28(s0)
    2de8:	00178793          	addi	a5,a5,1
    2dec:	fef42223          	sw	a5,-28(s0)
    2df0:	fe442703          	lw	a4,-28(s0)
    2df4:	fe842783          	lw	a5,-24(s0)
    2df8:	fcf762e3          	bltu	a4,a5,2dbc <core_init_state+0x4c>
    2dfc:	fec42703          	lw	a4,-20(s0)
    2e00:	fe442783          	lw	a5,-28(s0)
    2e04:	00f707b3          	add	a5,a4,a5
    2e08:	fd442703          	lw	a4,-44(s0)
    2e0c:	00f707b3          	add	a5,a4,a5
    2e10:	02c00713          	li	a4,44
    2e14:	00e78023          	sb	a4,0(a5)
    2e18:	fe842703          	lw	a4,-24(s0)
    2e1c:	fec42783          	lw	a5,-20(s0)
    2e20:	00f707b3          	add	a5,a4,a5
    2e24:	00178793          	addi	a5,a5,1
    2e28:	fef42623          	sw	a5,-20(s0)
    2e2c:	fda41783          	lh	a5,-38(s0)
    2e30:	01079793          	slli	a5,a5,0x10
    2e34:	0107d793          	srli	a5,a5,0x10
    2e38:	00178793          	addi	a5,a5,1
    2e3c:	01079793          	slli	a5,a5,0x10
    2e40:	0107d793          	srli	a5,a5,0x10
    2e44:	fcf41d23          	sh	a5,-38(s0)
    2e48:	fda45783          	lhu	a5,-38(s0)
    2e4c:	0077f793          	andi	a5,a5,7
    2e50:	00700713          	li	a4,7
    2e54:	0ee78863          	beq	a5,a4,2f44 <core_init_state+0x1d4>
    2e58:	00700713          	li	a4,7
    2e5c:	12f74263          	blt	a4,a5,2f80 <core_init_state+0x210>
    2e60:	00600713          	li	a4,6
    2e64:	10f74e63          	blt	a4,a5,2f80 <core_init_state+0x210>
    2e68:	00500713          	li	a4,5
    2e6c:	08e7de63          	bge	a5,a4,2f08 <core_init_state+0x198>
    2e70:	00200713          	li	a4,2
    2e74:	00f74663          	blt	a4,a5,2e80 <core_init_state+0x110>
    2e78:	0007dc63          	bgez	a5,2e90 <core_init_state+0x120>
    2e7c:	1040006f          	j	2f80 <core_init_state+0x210>
    2e80:	ffd78713          	addi	a4,a5,-3
    2e84:	00100793          	li	a5,1
    2e88:	0ee7ec63          	bltu	a5,a4,2f80 <core_init_state+0x210>
    2e8c:	0400006f          	j	2ecc <core_init_state+0x15c>
    2e90:	fda41783          	lh	a5,-38(s0)
    2e94:	4037d793          	srai	a5,a5,0x3
    2e98:	01079793          	slli	a5,a5,0x10
    2e9c:	4107d793          	srai	a5,a5,0x10
    2ea0:	01079793          	slli	a5,a5,0x10
    2ea4:	0107d793          	srli	a5,a5,0x10
    2ea8:	0037f793          	andi	a5,a5,3
    2eac:	83018713          	addi	a4,gp,-2000 # 6040 <intpat>
    2eb0:	00279793          	slli	a5,a5,0x2
    2eb4:	00f707b3          	add	a5,a4,a5
    2eb8:	0007a783          	lw	a5,0(a5)
    2ebc:	fef42023          	sw	a5,-32(s0)
    2ec0:	00400793          	li	a5,4
    2ec4:	fef42423          	sw	a5,-24(s0)
    2ec8:	0bc0006f          	j	2f84 <core_init_state+0x214>
    2ecc:	fda41783          	lh	a5,-38(s0)
    2ed0:	4037d793          	srai	a5,a5,0x3
    2ed4:	01079793          	slli	a5,a5,0x10
    2ed8:	4107d793          	srai	a5,a5,0x10
    2edc:	01079793          	slli	a5,a5,0x10
    2ee0:	0107d793          	srli	a5,a5,0x10
    2ee4:	0037f793          	andi	a5,a5,3
    2ee8:	84018713          	addi	a4,gp,-1984 # 6050 <floatpat>
    2eec:	00279793          	slli	a5,a5,0x2
    2ef0:	00f707b3          	add	a5,a4,a5
    2ef4:	0007a783          	lw	a5,0(a5)
    2ef8:	fef42023          	sw	a5,-32(s0)
    2efc:	00800793          	li	a5,8
    2f00:	fef42423          	sw	a5,-24(s0)
    2f04:	0800006f          	j	2f84 <core_init_state+0x214>
    2f08:	fda41783          	lh	a5,-38(s0)
    2f0c:	4037d793          	srai	a5,a5,0x3
    2f10:	01079793          	slli	a5,a5,0x10
    2f14:	4107d793          	srai	a5,a5,0x10
    2f18:	01079793          	slli	a5,a5,0x10
    2f1c:	0107d793          	srli	a5,a5,0x10
    2f20:	0037f793          	andi	a5,a5,3
    2f24:	85018713          	addi	a4,gp,-1968 # 6060 <scipat>
    2f28:	00279793          	slli	a5,a5,0x2
    2f2c:	00f707b3          	add	a5,a4,a5
    2f30:	0007a783          	lw	a5,0(a5)
    2f34:	fef42023          	sw	a5,-32(s0)
    2f38:	00800793          	li	a5,8
    2f3c:	fef42423          	sw	a5,-24(s0)
    2f40:	0440006f          	j	2f84 <core_init_state+0x214>
    2f44:	fda41783          	lh	a5,-38(s0)
    2f48:	4037d793          	srai	a5,a5,0x3
    2f4c:	01079793          	slli	a5,a5,0x10
    2f50:	4107d793          	srai	a5,a5,0x10
    2f54:	01079793          	slli	a5,a5,0x10
    2f58:	0107d793          	srli	a5,a5,0x10
    2f5c:	0037f793          	andi	a5,a5,3
    2f60:	86018713          	addi	a4,gp,-1952 # 6070 <errpat>
    2f64:	00279793          	slli	a5,a5,0x2
    2f68:	00f707b3          	add	a5,a4,a5
    2f6c:	0007a783          	lw	a5,0(a5)
    2f70:	fef42023          	sw	a5,-32(s0)
    2f74:	00800793          	li	a5,8
    2f78:	fef42423          	sw	a5,-24(s0)
    2f7c:	0080006f          	j	2f84 <core_init_state+0x214>
    2f80:	00000013          	nop
    2f84:	fec42703          	lw	a4,-20(s0)
    2f88:	fe842783          	lw	a5,-24(s0)
    2f8c:	00f707b3          	add	a5,a4,a5
    2f90:	00178793          	addi	a5,a5,1
    2f94:	fdc42703          	lw	a4,-36(s0)
    2f98:	e0e7eae3          	bltu	a5,a4,2dac <core_init_state+0x3c>
    2f9c:	fdc42783          	lw	a5,-36(s0)
    2fa0:	00178793          	addi	a5,a5,1
    2fa4:	fcf42e23          	sw	a5,-36(s0)
    2fa8:	0200006f          	j	2fc8 <core_init_state+0x258>
    2fac:	fd442703          	lw	a4,-44(s0)
    2fb0:	fec42783          	lw	a5,-20(s0)
    2fb4:	00f707b3          	add	a5,a4,a5
    2fb8:	00078023          	sb	zero,0(a5)
    2fbc:	fec42783          	lw	a5,-20(s0)
    2fc0:	00178793          	addi	a5,a5,1
    2fc4:	fef42623          	sw	a5,-20(s0)
    2fc8:	fec42703          	lw	a4,-20(s0)
    2fcc:	fdc42783          	lw	a5,-36(s0)
    2fd0:	fcf76ee3          	bltu	a4,a5,2fac <core_init_state+0x23c>
    2fd4:	00000013          	nop
    2fd8:	00000013          	nop
    2fdc:	02c12403          	lw	s0,44(sp)
    2fe0:	03010113          	addi	sp,sp,48
    2fe4:	00008067          	ret

00002fe8 <ee_isdigit>:
    2fe8:	fd010113          	addi	sp,sp,-48
    2fec:	02812623          	sw	s0,44(sp)
    2ff0:	03010413          	addi	s0,sp,48
    2ff4:	00050793          	mv	a5,a0
    2ff8:	fcf40fa3          	sb	a5,-33(s0)
    2ffc:	fdf44783          	lbu	a5,-33(s0)
    3000:	0307b793          	sltiu	a5,a5,48
    3004:	0017c793          	xori	a5,a5,1
    3008:	0ff7f713          	andi	a4,a5,255
    300c:	fdf44783          	lbu	a5,-33(s0)
    3010:	03a7b793          	sltiu	a5,a5,58
    3014:	0ff7f793          	andi	a5,a5,255
    3018:	00f777b3          	and	a5,a4,a5
    301c:	0ff7f793          	andi	a5,a5,255
    3020:	fef407a3          	sb	a5,-17(s0)
    3024:	fef44783          	lbu	a5,-17(s0)
    3028:	00078513          	mv	a0,a5
    302c:	02c12403          	lw	s0,44(sp)
    3030:	03010113          	addi	sp,sp,48
    3034:	00008067          	ret

00003038 <core_state_transition>:
    3038:	fd010113          	addi	sp,sp,-48
    303c:	02112623          	sw	ra,44(sp)
    3040:	02812423          	sw	s0,40(sp)
    3044:	03010413          	addi	s0,sp,48
    3048:	fca42e23          	sw	a0,-36(s0)
    304c:	fcb42c23          	sw	a1,-40(s0)
    3050:	fdc42783          	lw	a5,-36(s0)
    3054:	0007a783          	lw	a5,0(a5)
    3058:	fef42623          	sw	a5,-20(s0)
    305c:	fe042423          	sw	zero,-24(s0)
    3060:	3380006f          	j	3398 <core_state_transition+0x360>
    3064:	fec42783          	lw	a5,-20(s0)
    3068:	0007c783          	lbu	a5,0(a5)
    306c:	fef403a3          	sb	a5,-25(s0)
    3070:	fe744703          	lbu	a4,-25(s0)
    3074:	02c00793          	li	a5,44
    3078:	00f71a63          	bne	a4,a5,308c <core_state_transition+0x54>
    307c:	fec42783          	lw	a5,-20(s0)
    3080:	00178793          	addi	a5,a5,1
    3084:	fef42623          	sw	a5,-20(s0)
    3088:	3280006f          	j	33b0 <core_state_transition+0x378>
    308c:	fe842703          	lw	a4,-24(s0)
    3090:	00700793          	li	a5,7
    3094:	2ce7ee63          	bltu	a5,a4,3370 <core_state_transition+0x338>
    3098:	fe842783          	lw	a5,-24(s0)
    309c:	00279713          	slli	a4,a5,0x2
    30a0:	000057b7          	lui	a5,0x5
    30a4:	24478793          	addi	a5,a5,580 # 5244 <__errno+0x508>
    30a8:	00f707b3          	add	a5,a4,a5
    30ac:	0007a783          	lw	a5,0(a5)
    30b0:	00078067          	jr	a5
    30b4:	fe744783          	lbu	a5,-25(s0)
    30b8:	00078513          	mv	a0,a5
    30bc:	f2dff0ef          	jal	ra,2fe8 <ee_isdigit>
    30c0:	00050793          	mv	a5,a0
    30c4:	00078863          	beqz	a5,30d4 <core_state_transition+0x9c>
    30c8:	00400793          	li	a5,4
    30cc:	fef42423          	sw	a5,-24(s0)
    30d0:	05c0006f          	j	312c <core_state_transition+0xf4>
    30d4:	fe744703          	lbu	a4,-25(s0)
    30d8:	02b00793          	li	a5,43
    30dc:	00f70863          	beq	a4,a5,30ec <core_state_transition+0xb4>
    30e0:	fe744703          	lbu	a4,-25(s0)
    30e4:	02d00793          	li	a5,45
    30e8:	00f71863          	bne	a4,a5,30f8 <core_state_transition+0xc0>
    30ec:	00200793          	li	a5,2
    30f0:	fef42423          	sw	a5,-24(s0)
    30f4:	0380006f          	j	312c <core_state_transition+0xf4>
    30f8:	fe744703          	lbu	a4,-25(s0)
    30fc:	02e00793          	li	a5,46
    3100:	00f71863          	bne	a4,a5,3110 <core_state_transition+0xd8>
    3104:	00500793          	li	a5,5
    3108:	fef42423          	sw	a5,-24(s0)
    310c:	0200006f          	j	312c <core_state_transition+0xf4>
    3110:	00100793          	li	a5,1
    3114:	fef42423          	sw	a5,-24(s0)
    3118:	fd842783          	lw	a5,-40(s0)
    311c:	00478793          	addi	a5,a5,4
    3120:	0007a703          	lw	a4,0(a5)
    3124:	00170713          	addi	a4,a4,1
    3128:	00e7a023          	sw	a4,0(a5)
    312c:	fd842783          	lw	a5,-40(s0)
    3130:	0007a783          	lw	a5,0(a5)
    3134:	00178713          	addi	a4,a5,1
    3138:	fd842783          	lw	a5,-40(s0)
    313c:	00e7a023          	sw	a4,0(a5)
    3140:	24c0006f          	j	338c <core_state_transition+0x354>
    3144:	fe744783          	lbu	a5,-25(s0)
    3148:	00078513          	mv	a0,a5
    314c:	e9dff0ef          	jal	ra,2fe8 <ee_isdigit>
    3150:	00050793          	mv	a5,a0
    3154:	02078263          	beqz	a5,3178 <core_state_transition+0x140>
    3158:	00400793          	li	a5,4
    315c:	fef42423          	sw	a5,-24(s0)
    3160:	fd842783          	lw	a5,-40(s0)
    3164:	00878793          	addi	a5,a5,8
    3168:	0007a703          	lw	a4,0(a5)
    316c:	00170713          	addi	a4,a4,1
    3170:	00e7a023          	sw	a4,0(a5)
    3174:	2180006f          	j	338c <core_state_transition+0x354>
    3178:	fe744703          	lbu	a4,-25(s0)
    317c:	02e00793          	li	a5,46
    3180:	02f71263          	bne	a4,a5,31a4 <core_state_transition+0x16c>
    3184:	00500793          	li	a5,5
    3188:	fef42423          	sw	a5,-24(s0)
    318c:	fd842783          	lw	a5,-40(s0)
    3190:	00878793          	addi	a5,a5,8
    3194:	0007a703          	lw	a4,0(a5)
    3198:	00170713          	addi	a4,a4,1
    319c:	00e7a023          	sw	a4,0(a5)
    31a0:	1ec0006f          	j	338c <core_state_transition+0x354>
    31a4:	00100793          	li	a5,1
    31a8:	fef42423          	sw	a5,-24(s0)
    31ac:	fd842783          	lw	a5,-40(s0)
    31b0:	00878793          	addi	a5,a5,8
    31b4:	0007a703          	lw	a4,0(a5)
    31b8:	00170713          	addi	a4,a4,1
    31bc:	00e7a023          	sw	a4,0(a5)
    31c0:	1cc0006f          	j	338c <core_state_transition+0x354>
    31c4:	fe744703          	lbu	a4,-25(s0)
    31c8:	02e00793          	li	a5,46
    31cc:	02f71263          	bne	a4,a5,31f0 <core_state_transition+0x1b8>
    31d0:	00500793          	li	a5,5
    31d4:	fef42423          	sw	a5,-24(s0)
    31d8:	fd842783          	lw	a5,-40(s0)
    31dc:	01078793          	addi	a5,a5,16
    31e0:	0007a703          	lw	a4,0(a5)
    31e4:	00170713          	addi	a4,a4,1
    31e8:	00e7a023          	sw	a4,0(a5)
    31ec:	18c0006f          	j	3378 <core_state_transition+0x340>
    31f0:	fe744783          	lbu	a5,-25(s0)
    31f4:	00078513          	mv	a0,a5
    31f8:	df1ff0ef          	jal	ra,2fe8 <ee_isdigit>
    31fc:	00050793          	mv	a5,a0
    3200:	16079c63          	bnez	a5,3378 <core_state_transition+0x340>
    3204:	00100793          	li	a5,1
    3208:	fef42423          	sw	a5,-24(s0)
    320c:	fd842783          	lw	a5,-40(s0)
    3210:	01078793          	addi	a5,a5,16
    3214:	0007a703          	lw	a4,0(a5)
    3218:	00170713          	addi	a4,a4,1
    321c:	00e7a023          	sw	a4,0(a5)
    3220:	1580006f          	j	3378 <core_state_transition+0x340>
    3224:	fe744703          	lbu	a4,-25(s0)
    3228:	04500793          	li	a5,69
    322c:	00f70863          	beq	a4,a5,323c <core_state_transition+0x204>
    3230:	fe744703          	lbu	a4,-25(s0)
    3234:	06500793          	li	a5,101
    3238:	02f71263          	bne	a4,a5,325c <core_state_transition+0x224>
    323c:	00300793          	li	a5,3
    3240:	fef42423          	sw	a5,-24(s0)
    3244:	fd842783          	lw	a5,-40(s0)
    3248:	01478793          	addi	a5,a5,20
    324c:	0007a703          	lw	a4,0(a5)
    3250:	00170713          	addi	a4,a4,1
    3254:	00e7a023          	sw	a4,0(a5)
    3258:	1280006f          	j	3380 <core_state_transition+0x348>
    325c:	fe744783          	lbu	a5,-25(s0)
    3260:	00078513          	mv	a0,a5
    3264:	d85ff0ef          	jal	ra,2fe8 <ee_isdigit>
    3268:	00050793          	mv	a5,a0
    326c:	10079a63          	bnez	a5,3380 <core_state_transition+0x348>
    3270:	00100793          	li	a5,1
    3274:	fef42423          	sw	a5,-24(s0)
    3278:	fd842783          	lw	a5,-40(s0)
    327c:	01478793          	addi	a5,a5,20
    3280:	0007a703          	lw	a4,0(a5)
    3284:	00170713          	addi	a4,a4,1
    3288:	00e7a023          	sw	a4,0(a5)
    328c:	0f40006f          	j	3380 <core_state_transition+0x348>
    3290:	fe744703          	lbu	a4,-25(s0)
    3294:	02b00793          	li	a5,43
    3298:	00f70863          	beq	a4,a5,32a8 <core_state_transition+0x270>
    329c:	fe744703          	lbu	a4,-25(s0)
    32a0:	02d00793          	li	a5,45
    32a4:	02f71263          	bne	a4,a5,32c8 <core_state_transition+0x290>
    32a8:	00600793          	li	a5,6
    32ac:	fef42423          	sw	a5,-24(s0)
    32b0:	fd842783          	lw	a5,-40(s0)
    32b4:	00c78793          	addi	a5,a5,12
    32b8:	0007a703          	lw	a4,0(a5)
    32bc:	00170713          	addi	a4,a4,1
    32c0:	00e7a023          	sw	a4,0(a5)
    32c4:	0c80006f          	j	338c <core_state_transition+0x354>
    32c8:	00100793          	li	a5,1
    32cc:	fef42423          	sw	a5,-24(s0)
    32d0:	fd842783          	lw	a5,-40(s0)
    32d4:	00c78793          	addi	a5,a5,12
    32d8:	0007a703          	lw	a4,0(a5)
    32dc:	00170713          	addi	a4,a4,1
    32e0:	00e7a023          	sw	a4,0(a5)
    32e4:	0a80006f          	j	338c <core_state_transition+0x354>
    32e8:	fe744783          	lbu	a5,-25(s0)
    32ec:	00078513          	mv	a0,a5
    32f0:	cf9ff0ef          	jal	ra,2fe8 <ee_isdigit>
    32f4:	00050793          	mv	a5,a0
    32f8:	02078263          	beqz	a5,331c <core_state_transition+0x2e4>
    32fc:	00700793          	li	a5,7
    3300:	fef42423          	sw	a5,-24(s0)
    3304:	fd842783          	lw	a5,-40(s0)
    3308:	01878793          	addi	a5,a5,24
    330c:	0007a703          	lw	a4,0(a5)
    3310:	00170713          	addi	a4,a4,1
    3314:	00e7a023          	sw	a4,0(a5)
    3318:	0740006f          	j	338c <core_state_transition+0x354>
    331c:	00100793          	li	a5,1
    3320:	fef42423          	sw	a5,-24(s0)
    3324:	fd842783          	lw	a5,-40(s0)
    3328:	01878793          	addi	a5,a5,24
    332c:	0007a703          	lw	a4,0(a5)
    3330:	00170713          	addi	a4,a4,1
    3334:	00e7a023          	sw	a4,0(a5)
    3338:	0540006f          	j	338c <core_state_transition+0x354>
    333c:	fe744783          	lbu	a5,-25(s0)
    3340:	00078513          	mv	a0,a5
    3344:	ca5ff0ef          	jal	ra,2fe8 <ee_isdigit>
    3348:	00050793          	mv	a5,a0
    334c:	02079e63          	bnez	a5,3388 <core_state_transition+0x350>
    3350:	00100793          	li	a5,1
    3354:	fef42423          	sw	a5,-24(s0)
    3358:	fd842783          	lw	a5,-40(s0)
    335c:	00478793          	addi	a5,a5,4
    3360:	0007a703          	lw	a4,0(a5)
    3364:	00170713          	addi	a4,a4,1
    3368:	00e7a023          	sw	a4,0(a5)
    336c:	01c0006f          	j	3388 <core_state_transition+0x350>
    3370:	00000013          	nop
    3374:	0180006f          	j	338c <core_state_transition+0x354>
    3378:	00000013          	nop
    337c:	0100006f          	j	338c <core_state_transition+0x354>
    3380:	00000013          	nop
    3384:	0080006f          	j	338c <core_state_transition+0x354>
    3388:	00000013          	nop
    338c:	fec42783          	lw	a5,-20(s0)
    3390:	00178793          	addi	a5,a5,1
    3394:	fef42623          	sw	a5,-20(s0)
    3398:	fec42783          	lw	a5,-20(s0)
    339c:	0007c783          	lbu	a5,0(a5)
    33a0:	00078863          	beqz	a5,33b0 <core_state_transition+0x378>
    33a4:	fe842703          	lw	a4,-24(s0)
    33a8:	00100793          	li	a5,1
    33ac:	caf71ce3          	bne	a4,a5,3064 <core_state_transition+0x2c>
    33b0:	fdc42783          	lw	a5,-36(s0)
    33b4:	fec42703          	lw	a4,-20(s0)
    33b8:	00e7a023          	sw	a4,0(a5)
    33bc:	fe842783          	lw	a5,-24(s0)
    33c0:	00078513          	mv	a0,a5
    33c4:	02c12083          	lw	ra,44(sp)
    33c8:	02812403          	lw	s0,40(sp)
    33cc:	03010113          	addi	sp,sp,48
    33d0:	00008067          	ret

000033d4 <get_seed_32>:
    33d4:	fd010113          	addi	sp,sp,-48
    33d8:	02812623          	sw	s0,44(sp)
    33dc:	03010413          	addi	s0,sp,48
    33e0:	fca42e23          	sw	a0,-36(s0)
    33e4:	fdc42703          	lw	a4,-36(s0)
    33e8:	00500793          	li	a5,5
    33ec:	04e7ee63          	bltu	a5,a4,3448 <get_seed_32+0x74>
    33f0:	fdc42783          	lw	a5,-36(s0)
    33f4:	00279713          	slli	a4,a5,0x2
    33f8:	000057b7          	lui	a5,0x5
    33fc:	26478793          	addi	a5,a5,612 # 5264 <__errno+0x528>
    3400:	00f707b3          	add	a5,a4,a5
    3404:	0007a783          	lw	a5,0(a5)
    3408:	00078067          	jr	a5
    340c:	cb41a783          	lw	a5,-844(gp) # 64c4 <seed1_volatile>
    3410:	fef42623          	sw	a5,-20(s0)
    3414:	03c0006f          	j	3450 <get_seed_32+0x7c>
    3418:	cb81a783          	lw	a5,-840(gp) # 64c8 <seed2_volatile>
    341c:	fef42623          	sw	a5,-20(s0)
    3420:	0300006f          	j	3450 <get_seed_32+0x7c>
    3424:	ca01a783          	lw	a5,-864(gp) # 64b0 <seed3_volatile>
    3428:	fef42623          	sw	a5,-20(s0)
    342c:	0240006f          	j	3450 <get_seed_32+0x7c>
    3430:	cbc1a783          	lw	a5,-836(gp) # 64cc <seed4_volatile>
    3434:	fef42623          	sw	a5,-20(s0)
    3438:	0180006f          	j	3450 <get_seed_32+0x7c>
    343c:	cc01a783          	lw	a5,-832(gp) # 64d0 <seed5_volatile>
    3440:	fef42623          	sw	a5,-20(s0)
    3444:	00c0006f          	j	3450 <get_seed_32+0x7c>
    3448:	fe042623          	sw	zero,-20(s0)
    344c:	00000013          	nop
    3450:	fec42783          	lw	a5,-20(s0)
    3454:	00078513          	mv	a0,a5
    3458:	02c12403          	lw	s0,44(sp)
    345c:	03010113          	addi	sp,sp,48
    3460:	00008067          	ret

00003464 <crcu8>:
    3464:	fd010113          	addi	sp,sp,-48
    3468:	02812623          	sw	s0,44(sp)
    346c:	03010413          	addi	s0,sp,48
    3470:	00050793          	mv	a5,a0
    3474:	00058713          	mv	a4,a1
    3478:	fcf40fa3          	sb	a5,-33(s0)
    347c:	00070793          	mv	a5,a4
    3480:	fcf41e23          	sh	a5,-36(s0)
    3484:	fe0407a3          	sb	zero,-17(s0)
    3488:	fe0406a3          	sb	zero,-19(s0)
    348c:	fe040723          	sb	zero,-18(s0)
    3490:	fe0407a3          	sb	zero,-17(s0)
    3494:	0b00006f          	j	3544 <crcu8+0xe0>
    3498:	fdc45783          	lhu	a5,-36(s0)
    349c:	01879713          	slli	a4,a5,0x18
    34a0:	41875713          	srai	a4,a4,0x18
    34a4:	fdf40783          	lb	a5,-33(s0)
    34a8:	00f747b3          	xor	a5,a4,a5
    34ac:	01879793          	slli	a5,a5,0x18
    34b0:	4187d793          	srai	a5,a5,0x18
    34b4:	0ff7f793          	andi	a5,a5,255
    34b8:	0017f793          	andi	a5,a5,1
    34bc:	fef406a3          	sb	a5,-19(s0)
    34c0:	fdf44783          	lbu	a5,-33(s0)
    34c4:	0017d793          	srli	a5,a5,0x1
    34c8:	fcf40fa3          	sb	a5,-33(s0)
    34cc:	fed44703          	lbu	a4,-19(s0)
    34d0:	00100793          	li	a5,1
    34d4:	02f71263          	bne	a4,a5,34f8 <crcu8+0x94>
    34d8:	fdc45703          	lhu	a4,-36(s0)
    34dc:	000047b7          	lui	a5,0x4
    34e0:	00278793          	addi	a5,a5,2 # 4002 <iaddr+0x176>
    34e4:	00f747b3          	xor	a5,a4,a5
    34e8:	fcf41e23          	sh	a5,-36(s0)
    34ec:	00100793          	li	a5,1
    34f0:	fef40723          	sb	a5,-18(s0)
    34f4:	0080006f          	j	34fc <crcu8+0x98>
    34f8:	fe040723          	sb	zero,-18(s0)
    34fc:	fdc45783          	lhu	a5,-36(s0)
    3500:	0017d793          	srli	a5,a5,0x1
    3504:	fcf41e23          	sh	a5,-36(s0)
    3508:	fee44783          	lbu	a5,-18(s0)
    350c:	00078c63          	beqz	a5,3524 <crcu8+0xc0>
    3510:	fdc45703          	lhu	a4,-36(s0)
    3514:	ffff87b7          	lui	a5,0xffff8
    3518:	00f767b3          	or	a5,a4,a5
    351c:	fcf41e23          	sh	a5,-36(s0)
    3520:	0180006f          	j	3538 <crcu8+0xd4>
    3524:	fdc45703          	lhu	a4,-36(s0)
    3528:	000087b7          	lui	a5,0x8
    352c:	fff78793          	addi	a5,a5,-1 # 7fff <__BSS_END__+0x1337>
    3530:	00f777b3          	and	a5,a4,a5
    3534:	fcf41e23          	sh	a5,-36(s0)
    3538:	fef44783          	lbu	a5,-17(s0)
    353c:	00178793          	addi	a5,a5,1
    3540:	fef407a3          	sb	a5,-17(s0)
    3544:	fef44703          	lbu	a4,-17(s0)
    3548:	00700793          	li	a5,7
    354c:	f4e7f6e3          	bgeu	a5,a4,3498 <crcu8+0x34>
    3550:	fdc45783          	lhu	a5,-36(s0)
    3554:	00078513          	mv	a0,a5
    3558:	02c12403          	lw	s0,44(sp)
    355c:	03010113          	addi	sp,sp,48
    3560:	00008067          	ret

00003564 <crcu16>:
    3564:	fe010113          	addi	sp,sp,-32
    3568:	00112e23          	sw	ra,28(sp)
    356c:	00812c23          	sw	s0,24(sp)
    3570:	02010413          	addi	s0,sp,32
    3574:	00050793          	mv	a5,a0
    3578:	00058713          	mv	a4,a1
    357c:	fef41723          	sh	a5,-18(s0)
    3580:	00070793          	mv	a5,a4
    3584:	fef41623          	sh	a5,-20(s0)
    3588:	fee45783          	lhu	a5,-18(s0)
    358c:	0ff7f793          	andi	a5,a5,255
    3590:	fec45703          	lhu	a4,-20(s0)
    3594:	00070593          	mv	a1,a4
    3598:	00078513          	mv	a0,a5
    359c:	ec9ff0ef          	jal	ra,3464 <crcu8>
    35a0:	00050793          	mv	a5,a0
    35a4:	fef41623          	sh	a5,-20(s0)
    35a8:	fee45783          	lhu	a5,-18(s0)
    35ac:	0087d793          	srli	a5,a5,0x8
    35b0:	01079793          	slli	a5,a5,0x10
    35b4:	0107d793          	srli	a5,a5,0x10
    35b8:	0ff7f793          	andi	a5,a5,255
    35bc:	fec45703          	lhu	a4,-20(s0)
    35c0:	00070593          	mv	a1,a4
    35c4:	00078513          	mv	a0,a5
    35c8:	e9dff0ef          	jal	ra,3464 <crcu8>
    35cc:	00050793          	mv	a5,a0
    35d0:	fef41623          	sh	a5,-20(s0)
    35d4:	fec45783          	lhu	a5,-20(s0)
    35d8:	00078513          	mv	a0,a5
    35dc:	01c12083          	lw	ra,28(sp)
    35e0:	01812403          	lw	s0,24(sp)
    35e4:	02010113          	addi	sp,sp,32
    35e8:	00008067          	ret

000035ec <crcu32>:
    35ec:	fe010113          	addi	sp,sp,-32
    35f0:	00112e23          	sw	ra,28(sp)
    35f4:	00812c23          	sw	s0,24(sp)
    35f8:	02010413          	addi	s0,sp,32
    35fc:	fea42623          	sw	a0,-20(s0)
    3600:	00058793          	mv	a5,a1
    3604:	fef41523          	sh	a5,-22(s0)
    3608:	fec42783          	lw	a5,-20(s0)
    360c:	01079793          	slli	a5,a5,0x10
    3610:	4107d793          	srai	a5,a5,0x10
    3614:	fea45703          	lhu	a4,-22(s0)
    3618:	00070593          	mv	a1,a4
    361c:	00078513          	mv	a0,a5
    3620:	04c000ef          	jal	ra,366c <crc16>
    3624:	00050793          	mv	a5,a0
    3628:	fef41523          	sh	a5,-22(s0)
    362c:	fec42783          	lw	a5,-20(s0)
    3630:	0107d793          	srli	a5,a5,0x10
    3634:	01079793          	slli	a5,a5,0x10
    3638:	4107d793          	srai	a5,a5,0x10
    363c:	fea45703          	lhu	a4,-22(s0)
    3640:	00070593          	mv	a1,a4
    3644:	00078513          	mv	a0,a5
    3648:	024000ef          	jal	ra,366c <crc16>
    364c:	00050793          	mv	a5,a0
    3650:	fef41523          	sh	a5,-22(s0)
    3654:	fea45783          	lhu	a5,-22(s0)
    3658:	00078513          	mv	a0,a5
    365c:	01c12083          	lw	ra,28(sp)
    3660:	01812403          	lw	s0,24(sp)
    3664:	02010113          	addi	sp,sp,32
    3668:	00008067          	ret

0000366c <crc16>:
    366c:	fe010113          	addi	sp,sp,-32
    3670:	00112e23          	sw	ra,28(sp)
    3674:	00812c23          	sw	s0,24(sp)
    3678:	02010413          	addi	s0,sp,32
    367c:	00050793          	mv	a5,a0
    3680:	00058713          	mv	a4,a1
    3684:	fef41723          	sh	a5,-18(s0)
    3688:	00070793          	mv	a5,a4
    368c:	fef41623          	sh	a5,-20(s0)
    3690:	fee45783          	lhu	a5,-18(s0)
    3694:	fec45703          	lhu	a4,-20(s0)
    3698:	00070593          	mv	a1,a4
    369c:	00078513          	mv	a0,a5
    36a0:	ec5ff0ef          	jal	ra,3564 <crcu16>
    36a4:	00050793          	mv	a5,a0
    36a8:	00078513          	mv	a0,a5
    36ac:	01c12083          	lw	ra,28(sp)
    36b0:	01812403          	lw	s0,24(sp)
    36b4:	02010113          	addi	sp,sp,32
    36b8:	00008067          	ret

000036bc <check_data_types>:
    36bc:	fe010113          	addi	sp,sp,-32
    36c0:	00112e23          	sw	ra,28(sp)
    36c4:	00812c23          	sw	s0,24(sp)
    36c8:	02010413          	addi	s0,sp,32
    36cc:	fe0407a3          	sb	zero,-17(s0)
    36d0:	fef44783          	lbu	a5,-17(s0)
    36d4:	00078863          	beqz	a5,36e4 <check_data_types+0x28>
    36d8:	000057b7          	lui	a5,0x5
    36dc:	27c78513          	addi	a0,a5,636 # 527c <__errno+0x540>
    36e0:	0b8010ef          	jal	ra,4798 <ee_printf>
    36e4:	fef44783          	lbu	a5,-17(s0)
    36e8:	00078513          	mv	a0,a5
    36ec:	01c12083          	lw	ra,28(sp)
    36f0:	01812403          	lw	s0,24(sp)
    36f4:	02010113          	addi	sp,sp,32
    36f8:	00008067          	ret

000036fc <barebones_clock>:
    36fc:	fe010113          	addi	sp,sp,-32
    3700:	00812e23          	sw	s0,28(sp)
    3704:	02010413          	addi	s0,sp,32
    3708:	c00022f3          	rdcycle	t0
    370c:	fe542623          	sw	t0,-20(s0)
    3710:	00028793          	mv	a5,t0
    3714:	00078513          	mv	a0,a5
    3718:	01c12403          	lw	s0,28(sp)
    371c:	02010113          	addi	sp,sp,32
    3720:	00008067          	ret

00003724 <start_time>:
    3724:	ff010113          	addi	sp,sp,-16
    3728:	00112623          	sw	ra,12(sp)
    372c:	00812423          	sw	s0,8(sp)
    3730:	01010413          	addi	s0,sp,16
    3734:	fc9ff0ef          	jal	ra,36fc <barebones_clock>
    3738:	00050713          	mv	a4,a0
    373c:	4ae1a823          	sw	a4,1200(gp) # 6cc0 <start_time_val>
    3740:	00000013          	nop
    3744:	00c12083          	lw	ra,12(sp)
    3748:	00812403          	lw	s0,8(sp)
    374c:	01010113          	addi	sp,sp,16
    3750:	00008067          	ret

00003754 <stop_time>:
    3754:	ff010113          	addi	sp,sp,-16
    3758:	00112623          	sw	ra,12(sp)
    375c:	00812423          	sw	s0,8(sp)
    3760:	01010413          	addi	s0,sp,16
    3764:	f99ff0ef          	jal	ra,36fc <barebones_clock>
    3768:	00050713          	mv	a4,a0
    376c:	4ae1aa23          	sw	a4,1204(gp) # 6cc4 <stop_time_val>
    3770:	00000013          	nop
    3774:	00c12083          	lw	ra,12(sp)
    3778:	00812403          	lw	s0,8(sp)
    377c:	01010113          	addi	sp,sp,16
    3780:	00008067          	ret

00003784 <get_time>:
    3784:	fe010113          	addi	sp,sp,-32
    3788:	00812e23          	sw	s0,28(sp)
    378c:	02010413          	addi	s0,sp,32
    3790:	4b41a703          	lw	a4,1204(gp) # 6cc4 <stop_time_val>
    3794:	4b01a783          	lw	a5,1200(gp) # 6cc0 <start_time_val>
    3798:	40f707b3          	sub	a5,a4,a5
    379c:	fef42623          	sw	a5,-20(s0)
    37a0:	fec42783          	lw	a5,-20(s0)
    37a4:	00078513          	mv	a0,a5
    37a8:	01c12403          	lw	s0,28(sp)
    37ac:	02010113          	addi	sp,sp,32
    37b0:	00008067          	ret

000037b4 <time_in_secs>:
    37b4:	fd010113          	addi	sp,sp,-48
    37b8:	02112623          	sw	ra,44(sp)
    37bc:	02812423          	sw	s0,40(sp)
    37c0:	03010413          	addi	s0,sp,48
    37c4:	fca42e23          	sw	a0,-36(s0)
    37c8:	fdc42703          	lw	a4,-36(s0)
    37cc:	02faf7b7          	lui	a5,0x2faf
    37d0:	08078593          	addi	a1,a5,128 # 2faf080 <__BSS_END__+0x2fa83b8>
    37d4:	00070513          	mv	a0,a4
    37d8:	0a4010ef          	jal	ra,487c <__udivsi3>
    37dc:	00050793          	mv	a5,a0
    37e0:	fef42623          	sw	a5,-20(s0)
    37e4:	fec42783          	lw	a5,-20(s0)
    37e8:	00078513          	mv	a0,a5
    37ec:	02c12083          	lw	ra,44(sp)
    37f0:	02812403          	lw	s0,40(sp)
    37f4:	03010113          	addi	sp,sp,48
    37f8:	00008067          	ret

000037fc <portable_init>:
    37fc:	fe010113          	addi	sp,sp,-32
    3800:	00812e23          	sw	s0,28(sp)
    3804:	02010413          	addi	s0,sp,32
    3808:	fea42623          	sw	a0,-20(s0)
    380c:	feb42423          	sw	a1,-24(s0)
    3810:	fec42223          	sw	a2,-28(s0)
    3814:	fec42783          	lw	a5,-20(s0)
    3818:	00100713          	li	a4,1
    381c:	00e78023          	sb	a4,0(a5)
    3820:	00000013          	nop
    3824:	01c12403          	lw	s0,28(sp)
    3828:	02010113          	addi	sp,sp,32
    382c:	00008067          	ret

00003830 <portable_fini>:
    3830:	fe010113          	addi	sp,sp,-32
    3834:	00812e23          	sw	s0,28(sp)
    3838:	02010413          	addi	s0,sp,32
    383c:	fea42623          	sw	a0,-20(s0)
    3840:	fec42783          	lw	a5,-20(s0)
    3844:	00078023          	sb	zero,0(a5)
    3848:	0000006f          	j	3848 <portable_fini+0x18>

0000384c <strnlen>:
    384c:	fd010113          	addi	sp,sp,-48
    3850:	02812623          	sw	s0,44(sp)
    3854:	03010413          	addi	s0,sp,48
    3858:	fca42e23          	sw	a0,-36(s0)
    385c:	fcb42c23          	sw	a1,-40(s0)
    3860:	fdc42783          	lw	a5,-36(s0)
    3864:	fef42623          	sw	a5,-20(s0)
    3868:	0100006f          	j	3878 <strnlen+0x2c>
    386c:	fec42783          	lw	a5,-20(s0)
    3870:	00178793          	addi	a5,a5,1
    3874:	fef42623          	sw	a5,-20(s0)
    3878:	fec42783          	lw	a5,-20(s0)
    387c:	0007c783          	lbu	a5,0(a5)
    3880:	00078a63          	beqz	a5,3894 <strnlen+0x48>
    3884:	fd842783          	lw	a5,-40(s0)
    3888:	fff78713          	addi	a4,a5,-1
    388c:	fce42c23          	sw	a4,-40(s0)
    3890:	fc079ee3          	bnez	a5,386c <strnlen+0x20>
    3894:	fec42703          	lw	a4,-20(s0)
    3898:	fdc42783          	lw	a5,-36(s0)
    389c:	40f707b3          	sub	a5,a4,a5
    38a0:	00078513          	mv	a0,a5
    38a4:	02c12403          	lw	s0,44(sp)
    38a8:	03010113          	addi	sp,sp,48
    38ac:	00008067          	ret

000038b0 <skip_atoi>:
    38b0:	fd010113          	addi	sp,sp,-48
    38b4:	02812623          	sw	s0,44(sp)
    38b8:	03010413          	addi	s0,sp,48
    38bc:	fca42e23          	sw	a0,-36(s0)
    38c0:	fe042623          	sw	zero,-20(s0)
    38c4:	0400006f          	j	3904 <skip_atoi+0x54>
    38c8:	fec42703          	lw	a4,-20(s0)
    38cc:	00070793          	mv	a5,a4
    38d0:	00279793          	slli	a5,a5,0x2
    38d4:	00e787b3          	add	a5,a5,a4
    38d8:	00179793          	slli	a5,a5,0x1
    38dc:	00078613          	mv	a2,a5
    38e0:	fdc42783          	lw	a5,-36(s0)
    38e4:	0007a783          	lw	a5,0(a5)
    38e8:	00178693          	addi	a3,a5,1
    38ec:	fdc42703          	lw	a4,-36(s0)
    38f0:	00d72023          	sw	a3,0(a4)
    38f4:	0007c783          	lbu	a5,0(a5)
    38f8:	00f607b3          	add	a5,a2,a5
    38fc:	fd078793          	addi	a5,a5,-48
    3900:	fef42623          	sw	a5,-20(s0)
    3904:	fdc42783          	lw	a5,-36(s0)
    3908:	0007a783          	lw	a5,0(a5)
    390c:	0007c703          	lbu	a4,0(a5)
    3910:	02f00793          	li	a5,47
    3914:	00e7fc63          	bgeu	a5,a4,392c <skip_atoi+0x7c>
    3918:	fdc42783          	lw	a5,-36(s0)
    391c:	0007a783          	lw	a5,0(a5)
    3920:	0007c703          	lbu	a4,0(a5)
    3924:	03900793          	li	a5,57
    3928:	fae7f0e3          	bgeu	a5,a4,38c8 <skip_atoi+0x18>
    392c:	fec42783          	lw	a5,-20(s0)
    3930:	00078513          	mv	a0,a5
    3934:	02c12403          	lw	s0,44(sp)
    3938:	03010113          	addi	sp,sp,48
    393c:	00008067          	ret

00003940 <number>:
    3940:	f8010113          	addi	sp,sp,-128
    3944:	06112e23          	sw	ra,124(sp)
    3948:	06812c23          	sw	s0,120(sp)
    394c:	08010413          	addi	s0,sp,128
    3950:	f8a42e23          	sw	a0,-100(s0)
    3954:	f8b42c23          	sw	a1,-104(s0)
    3958:	f8c42a23          	sw	a2,-108(s0)
    395c:	f8d42823          	sw	a3,-112(s0)
    3960:	f8e42623          	sw	a4,-116(s0)
    3964:	f8f42423          	sw	a5,-120(s0)
    3968:	ca81a783          	lw	a5,-856(gp) # 64b8 <digits>
    396c:	fef42423          	sw	a5,-24(s0)
    3970:	f8842783          	lw	a5,-120(s0)
    3974:	0407f793          	andi	a5,a5,64
    3978:	00078663          	beqz	a5,3984 <number+0x44>
    397c:	cac1a783          	lw	a5,-852(gp) # 64bc <upper_digits>
    3980:	fef42423          	sw	a5,-24(s0)
    3984:	f8842783          	lw	a5,-120(s0)
    3988:	0107f793          	andi	a5,a5,16
    398c:	00078863          	beqz	a5,399c <number+0x5c>
    3990:	f8842783          	lw	a5,-120(s0)
    3994:	ffe7f793          	andi	a5,a5,-2
    3998:	f8f42423          	sw	a5,-120(s0)
    399c:	f9442703          	lw	a4,-108(s0)
    39a0:	00100793          	li	a5,1
    39a4:	00e7d863          	bge	a5,a4,39b4 <number+0x74>
    39a8:	f9442703          	lw	a4,-108(s0)
    39ac:	02400793          	li	a5,36
    39b0:	00e7d663          	bge	a5,a4,39bc <number+0x7c>
    39b4:	00000793          	li	a5,0
    39b8:	30c0006f          	j	3cc4 <number+0x384>
    39bc:	f8842783          	lw	a5,-120(s0)
    39c0:	0017f793          	andi	a5,a5,1
    39c4:	00078663          	beqz	a5,39d0 <number+0x90>
    39c8:	03000793          	li	a5,48
    39cc:	0080006f          	j	39d4 <number+0x94>
    39d0:	02000793          	li	a5,32
    39d4:	fef401a3          	sb	a5,-29(s0)
    39d8:	fe0407a3          	sb	zero,-17(s0)
    39dc:	f8842783          	lw	a5,-120(s0)
    39e0:	0027f793          	andi	a5,a5,2
    39e4:	06078a63          	beqz	a5,3a58 <number+0x118>
    39e8:	f9842783          	lw	a5,-104(s0)
    39ec:	0207d463          	bgez	a5,3a14 <number+0xd4>
    39f0:	02d00793          	li	a5,45
    39f4:	fef407a3          	sb	a5,-17(s0)
    39f8:	f9842783          	lw	a5,-104(s0)
    39fc:	40f007b3          	neg	a5,a5
    3a00:	f8f42c23          	sw	a5,-104(s0)
    3a04:	f9042783          	lw	a5,-112(s0)
    3a08:	fff78793          	addi	a5,a5,-1
    3a0c:	f8f42823          	sw	a5,-112(s0)
    3a10:	0480006f          	j	3a58 <number+0x118>
    3a14:	f8842783          	lw	a5,-120(s0)
    3a18:	0047f793          	andi	a5,a5,4
    3a1c:	00078e63          	beqz	a5,3a38 <number+0xf8>
    3a20:	02b00793          	li	a5,43
    3a24:	fef407a3          	sb	a5,-17(s0)
    3a28:	f9042783          	lw	a5,-112(s0)
    3a2c:	fff78793          	addi	a5,a5,-1
    3a30:	f8f42823          	sw	a5,-112(s0)
    3a34:	0240006f          	j	3a58 <number+0x118>
    3a38:	f8842783          	lw	a5,-120(s0)
    3a3c:	0087f793          	andi	a5,a5,8
    3a40:	00078c63          	beqz	a5,3a58 <number+0x118>
    3a44:	02000793          	li	a5,32
    3a48:	fef407a3          	sb	a5,-17(s0)
    3a4c:	f9042783          	lw	a5,-112(s0)
    3a50:	fff78793          	addi	a5,a5,-1
    3a54:	f8f42823          	sw	a5,-112(s0)
    3a58:	f8842783          	lw	a5,-120(s0)
    3a5c:	0207f793          	andi	a5,a5,32
    3a60:	02078c63          	beqz	a5,3a98 <number+0x158>
    3a64:	f9442703          	lw	a4,-108(s0)
    3a68:	01000793          	li	a5,16
    3a6c:	00f71a63          	bne	a4,a5,3a80 <number+0x140>
    3a70:	f9042783          	lw	a5,-112(s0)
    3a74:	ffe78793          	addi	a5,a5,-2
    3a78:	f8f42823          	sw	a5,-112(s0)
    3a7c:	01c0006f          	j	3a98 <number+0x158>
    3a80:	f9442703          	lw	a4,-108(s0)
    3a84:	00800793          	li	a5,8
    3a88:	00f71863          	bne	a4,a5,3a98 <number+0x158>
    3a8c:	f9042783          	lw	a5,-112(s0)
    3a90:	fff78793          	addi	a5,a5,-1
    3a94:	f8f42823          	sw	a5,-112(s0)
    3a98:	fe042223          	sw	zero,-28(s0)
    3a9c:	f9842783          	lw	a5,-104(s0)
    3aa0:	08079063          	bnez	a5,3b20 <number+0x1e0>
    3aa4:	fe442783          	lw	a5,-28(s0)
    3aa8:	00178713          	addi	a4,a5,1
    3aac:	fee42223          	sw	a4,-28(s0)
    3ab0:	ff040713          	addi	a4,s0,-16
    3ab4:	00f707b3          	add	a5,a4,a5
    3ab8:	03000713          	li	a4,48
    3abc:	fae78823          	sb	a4,-80(a5)
    3ac0:	0680006f          	j	3b28 <number+0x1e8>
    3ac4:	f9842783          	lw	a5,-104(s0)
    3ac8:	f9442703          	lw	a4,-108(s0)
    3acc:	00070593          	mv	a1,a4
    3ad0:	00078513          	mv	a0,a5
    3ad4:	5f1000ef          	jal	ra,48c4 <__umodsi3>
    3ad8:	00050793          	mv	a5,a0
    3adc:	00078713          	mv	a4,a5
    3ae0:	fe842783          	lw	a5,-24(s0)
    3ae4:	00e78733          	add	a4,a5,a4
    3ae8:	fe442783          	lw	a5,-28(s0)
    3aec:	00178693          	addi	a3,a5,1
    3af0:	fed42223          	sw	a3,-28(s0)
    3af4:	00074703          	lbu	a4,0(a4)
    3af8:	ff040693          	addi	a3,s0,-16
    3afc:	00f687b3          	add	a5,a3,a5
    3b00:	fae78823          	sb	a4,-80(a5)
    3b04:	f9842783          	lw	a5,-104(s0)
    3b08:	f9442703          	lw	a4,-108(s0)
    3b0c:	00070593          	mv	a1,a4
    3b10:	00078513          	mv	a0,a5
    3b14:	569000ef          	jal	ra,487c <__udivsi3>
    3b18:	00050793          	mv	a5,a0
    3b1c:	f8f42c23          	sw	a5,-104(s0)
    3b20:	f9842783          	lw	a5,-104(s0)
    3b24:	fa0790e3          	bnez	a5,3ac4 <number+0x184>
    3b28:	fe442703          	lw	a4,-28(s0)
    3b2c:	f8c42783          	lw	a5,-116(s0)
    3b30:	00e7d663          	bge	a5,a4,3b3c <number+0x1fc>
    3b34:	fe442783          	lw	a5,-28(s0)
    3b38:	f8f42623          	sw	a5,-116(s0)
    3b3c:	f9042703          	lw	a4,-112(s0)
    3b40:	f8c42783          	lw	a5,-116(s0)
    3b44:	40f707b3          	sub	a5,a4,a5
    3b48:	f8f42823          	sw	a5,-112(s0)
    3b4c:	f8842783          	lw	a5,-120(s0)
    3b50:	0117f793          	andi	a5,a5,17
    3b54:	02079663          	bnez	a5,3b80 <number+0x240>
    3b58:	0180006f          	j	3b70 <number+0x230>
    3b5c:	f9c42783          	lw	a5,-100(s0)
    3b60:	00178713          	addi	a4,a5,1
    3b64:	f8e42e23          	sw	a4,-100(s0)
    3b68:	02000713          	li	a4,32
    3b6c:	00e78023          	sb	a4,0(a5)
    3b70:	f9042783          	lw	a5,-112(s0)
    3b74:	fff78713          	addi	a4,a5,-1
    3b78:	f8e42823          	sw	a4,-112(s0)
    3b7c:	fef040e3          	bgtz	a5,3b5c <number+0x21c>
    3b80:	fef44783          	lbu	a5,-17(s0)
    3b84:	00078c63          	beqz	a5,3b9c <number+0x25c>
    3b88:	f9c42783          	lw	a5,-100(s0)
    3b8c:	00178713          	addi	a4,a5,1
    3b90:	f8e42e23          	sw	a4,-100(s0)
    3b94:	fef44703          	lbu	a4,-17(s0)
    3b98:	00e78023          	sb	a4,0(a5)
    3b9c:	f8842783          	lw	a5,-120(s0)
    3ba0:	0207f793          	andi	a5,a5,32
    3ba4:	06078063          	beqz	a5,3c04 <number+0x2c4>
    3ba8:	f9442703          	lw	a4,-108(s0)
    3bac:	00800793          	li	a5,8
    3bb0:	00f71e63          	bne	a4,a5,3bcc <number+0x28c>
    3bb4:	f9c42783          	lw	a5,-100(s0)
    3bb8:	00178713          	addi	a4,a5,1
    3bbc:	f8e42e23          	sw	a4,-100(s0)
    3bc0:	03000713          	li	a4,48
    3bc4:	00e78023          	sb	a4,0(a5)
    3bc8:	03c0006f          	j	3c04 <number+0x2c4>
    3bcc:	f9442703          	lw	a4,-108(s0)
    3bd0:	01000793          	li	a5,16
    3bd4:	02f71863          	bne	a4,a5,3c04 <number+0x2c4>
    3bd8:	f9c42783          	lw	a5,-100(s0)
    3bdc:	00178713          	addi	a4,a5,1
    3be0:	f8e42e23          	sw	a4,-100(s0)
    3be4:	03000713          	li	a4,48
    3be8:	00e78023          	sb	a4,0(a5)
    3bec:	ca81a703          	lw	a4,-856(gp) # 64b8 <digits>
    3bf0:	f9c42783          	lw	a5,-100(s0)
    3bf4:	00178693          	addi	a3,a5,1
    3bf8:	f8d42e23          	sw	a3,-100(s0)
    3bfc:	02174703          	lbu	a4,33(a4)
    3c00:	00e78023          	sb	a4,0(a5)
    3c04:	f8842783          	lw	a5,-120(s0)
    3c08:	0107f793          	andi	a5,a5,16
    3c0c:	04079263          	bnez	a5,3c50 <number+0x310>
    3c10:	0180006f          	j	3c28 <number+0x2e8>
    3c14:	f9c42783          	lw	a5,-100(s0)
    3c18:	00178713          	addi	a4,a5,1
    3c1c:	f8e42e23          	sw	a4,-100(s0)
    3c20:	fe344703          	lbu	a4,-29(s0)
    3c24:	00e78023          	sb	a4,0(a5)
    3c28:	f9042783          	lw	a5,-112(s0)
    3c2c:	fff78713          	addi	a4,a5,-1
    3c30:	f8e42823          	sw	a4,-112(s0)
    3c34:	fef040e3          	bgtz	a5,3c14 <number+0x2d4>
    3c38:	0180006f          	j	3c50 <number+0x310>
    3c3c:	f9c42783          	lw	a5,-100(s0)
    3c40:	00178713          	addi	a4,a5,1
    3c44:	f8e42e23          	sw	a4,-100(s0)
    3c48:	03000713          	li	a4,48
    3c4c:	00e78023          	sb	a4,0(a5)
    3c50:	f8c42783          	lw	a5,-116(s0)
    3c54:	fff78713          	addi	a4,a5,-1
    3c58:	f8e42623          	sw	a4,-116(s0)
    3c5c:	fe442703          	lw	a4,-28(s0)
    3c60:	fcf74ee3          	blt	a4,a5,3c3c <number+0x2fc>
    3c64:	0240006f          	j	3c88 <number+0x348>
    3c68:	f9c42783          	lw	a5,-100(s0)
    3c6c:	00178713          	addi	a4,a5,1
    3c70:	f8e42e23          	sw	a4,-100(s0)
    3c74:	fe442703          	lw	a4,-28(s0)
    3c78:	ff040693          	addi	a3,s0,-16
    3c7c:	00e68733          	add	a4,a3,a4
    3c80:	fb074703          	lbu	a4,-80(a4)
    3c84:	00e78023          	sb	a4,0(a5)
    3c88:	fe442783          	lw	a5,-28(s0)
    3c8c:	fff78713          	addi	a4,a5,-1
    3c90:	fee42223          	sw	a4,-28(s0)
    3c94:	fcf04ae3          	bgtz	a5,3c68 <number+0x328>
    3c98:	0180006f          	j	3cb0 <number+0x370>
    3c9c:	f9c42783          	lw	a5,-100(s0)
    3ca0:	00178713          	addi	a4,a5,1
    3ca4:	f8e42e23          	sw	a4,-100(s0)
    3ca8:	02000713          	li	a4,32
    3cac:	00e78023          	sb	a4,0(a5)
    3cb0:	f9042783          	lw	a5,-112(s0)
    3cb4:	fff78713          	addi	a4,a5,-1
    3cb8:	f8e42823          	sw	a4,-112(s0)
    3cbc:	fef040e3          	bgtz	a5,3c9c <number+0x35c>
    3cc0:	f9c42783          	lw	a5,-100(s0)
    3cc4:	00078513          	mv	a0,a5
    3cc8:	07c12083          	lw	ra,124(sp)
    3ccc:	07812403          	lw	s0,120(sp)
    3cd0:	08010113          	addi	sp,sp,128
    3cd4:	00008067          	ret

00003cd8 <eaddr>:
    3cd8:	fa010113          	addi	sp,sp,-96
    3cdc:	04812e23          	sw	s0,92(sp)
    3ce0:	06010413          	addi	s0,sp,96
    3ce4:	faa42e23          	sw	a0,-68(s0)
    3ce8:	fab42c23          	sw	a1,-72(s0)
    3cec:	fac42a23          	sw	a2,-76(s0)
    3cf0:	fad42823          	sw	a3,-80(s0)
    3cf4:	fae42623          	sw	a4,-84(s0)
    3cf8:	ca81a783          	lw	a5,-856(gp) # 64b8 <digits>
    3cfc:	fef42623          	sw	a5,-20(s0)
    3d00:	fac42783          	lw	a5,-84(s0)
    3d04:	0407f793          	andi	a5,a5,64
    3d08:	00078663          	beqz	a5,3d14 <eaddr+0x3c>
    3d0c:	cac1a783          	lw	a5,-852(gp) # 64bc <upper_digits>
    3d10:	fef42623          	sw	a5,-20(s0)
    3d14:	fe042223          	sw	zero,-28(s0)
    3d18:	fe042423          	sw	zero,-24(s0)
    3d1c:	0ac0006f          	j	3dc8 <eaddr+0xf0>
    3d20:	fe842783          	lw	a5,-24(s0)
    3d24:	02078063          	beqz	a5,3d44 <eaddr+0x6c>
    3d28:	fe442783          	lw	a5,-28(s0)
    3d2c:	00178713          	addi	a4,a5,1
    3d30:	fee42223          	sw	a4,-28(s0)
    3d34:	ff040713          	addi	a4,s0,-16
    3d38:	00f707b3          	add	a5,a4,a5
    3d3c:	03a00713          	li	a4,58
    3d40:	fce78e23          	sb	a4,-36(a5)
    3d44:	fe842783          	lw	a5,-24(s0)
    3d48:	fb842703          	lw	a4,-72(s0)
    3d4c:	00f707b3          	add	a5,a4,a5
    3d50:	0007c783          	lbu	a5,0(a5)
    3d54:	0047d793          	srli	a5,a5,0x4
    3d58:	0ff7f793          	andi	a5,a5,255
    3d5c:	00078713          	mv	a4,a5
    3d60:	fec42783          	lw	a5,-20(s0)
    3d64:	00e78733          	add	a4,a5,a4
    3d68:	fe442783          	lw	a5,-28(s0)
    3d6c:	00178693          	addi	a3,a5,1
    3d70:	fed42223          	sw	a3,-28(s0)
    3d74:	00074703          	lbu	a4,0(a4)
    3d78:	ff040693          	addi	a3,s0,-16
    3d7c:	00f687b3          	add	a5,a3,a5
    3d80:	fce78e23          	sb	a4,-36(a5)
    3d84:	fe842783          	lw	a5,-24(s0)
    3d88:	fb842703          	lw	a4,-72(s0)
    3d8c:	00f707b3          	add	a5,a4,a5
    3d90:	0007c783          	lbu	a5,0(a5)
    3d94:	00f7f793          	andi	a5,a5,15
    3d98:	fec42703          	lw	a4,-20(s0)
    3d9c:	00f70733          	add	a4,a4,a5
    3da0:	fe442783          	lw	a5,-28(s0)
    3da4:	00178693          	addi	a3,a5,1
    3da8:	fed42223          	sw	a3,-28(s0)
    3dac:	00074703          	lbu	a4,0(a4)
    3db0:	ff040693          	addi	a3,s0,-16
    3db4:	00f687b3          	add	a5,a3,a5
    3db8:	fce78e23          	sb	a4,-36(a5)
    3dbc:	fe842783          	lw	a5,-24(s0)
    3dc0:	00178793          	addi	a5,a5,1
    3dc4:	fef42423          	sw	a5,-24(s0)
    3dc8:	fe842703          	lw	a4,-24(s0)
    3dcc:	00500793          	li	a5,5
    3dd0:	f4e7d8e3          	bge	a5,a4,3d20 <eaddr+0x48>
    3dd4:	fac42783          	lw	a5,-84(s0)
    3dd8:	0107f793          	andi	a5,a5,16
    3ddc:	02079863          	bnez	a5,3e0c <eaddr+0x134>
    3de0:	0180006f          	j	3df8 <eaddr+0x120>
    3de4:	fbc42783          	lw	a5,-68(s0)
    3de8:	00178713          	addi	a4,a5,1
    3dec:	fae42e23          	sw	a4,-68(s0)
    3df0:	02000713          	li	a4,32
    3df4:	00e78023          	sb	a4,0(a5)
    3df8:	fb442783          	lw	a5,-76(s0)
    3dfc:	fff78713          	addi	a4,a5,-1
    3e00:	fae42a23          	sw	a4,-76(s0)
    3e04:	fe442703          	lw	a4,-28(s0)
    3e08:	fcf74ee3          	blt	a4,a5,3de4 <eaddr+0x10c>
    3e0c:	fe042423          	sw	zero,-24(s0)
    3e10:	0300006f          	j	3e40 <eaddr+0x168>
    3e14:	fbc42783          	lw	a5,-68(s0)
    3e18:	00178713          	addi	a4,a5,1
    3e1c:	fae42e23          	sw	a4,-68(s0)
    3e20:	fe842703          	lw	a4,-24(s0)
    3e24:	ff040693          	addi	a3,s0,-16
    3e28:	00e68733          	add	a4,a3,a4
    3e2c:	fdc74703          	lbu	a4,-36(a4)
    3e30:	00e78023          	sb	a4,0(a5)
    3e34:	fe842783          	lw	a5,-24(s0)
    3e38:	00178793          	addi	a5,a5,1
    3e3c:	fef42423          	sw	a5,-24(s0)
    3e40:	fe842703          	lw	a4,-24(s0)
    3e44:	fe442783          	lw	a5,-28(s0)
    3e48:	fcf746e3          	blt	a4,a5,3e14 <eaddr+0x13c>
    3e4c:	0180006f          	j	3e64 <eaddr+0x18c>
    3e50:	fbc42783          	lw	a5,-68(s0)
    3e54:	00178713          	addi	a4,a5,1
    3e58:	fae42e23          	sw	a4,-68(s0)
    3e5c:	02000713          	li	a4,32
    3e60:	00e78023          	sb	a4,0(a5)
    3e64:	fb442783          	lw	a5,-76(s0)
    3e68:	fff78713          	addi	a4,a5,-1
    3e6c:	fae42a23          	sw	a4,-76(s0)
    3e70:	fe442703          	lw	a4,-28(s0)
    3e74:	fcf74ee3          	blt	a4,a5,3e50 <eaddr+0x178>
    3e78:	fbc42783          	lw	a5,-68(s0)
    3e7c:	00078513          	mv	a0,a5
    3e80:	05c12403          	lw	s0,92(sp)
    3e84:	06010113          	addi	sp,sp,96
    3e88:	00008067          	ret

00003e8c <iaddr>:
    3e8c:	fa010113          	addi	sp,sp,-96
    3e90:	04112e23          	sw	ra,92(sp)
    3e94:	04812c23          	sw	s0,88(sp)
    3e98:	04912a23          	sw	s1,84(sp)
    3e9c:	06010413          	addi	s0,sp,96
    3ea0:	faa42e23          	sw	a0,-68(s0)
    3ea4:	fab42c23          	sw	a1,-72(s0)
    3ea8:	fac42a23          	sw	a2,-76(s0)
    3eac:	fad42823          	sw	a3,-80(s0)
    3eb0:	fae42623          	sw	a4,-84(s0)
    3eb4:	fe042223          	sw	zero,-28(s0)
    3eb8:	fe042623          	sw	zero,-20(s0)
    3ebc:	1a80006f          	j	4064 <iaddr+0x1d8>
    3ec0:	fec42783          	lw	a5,-20(s0)
    3ec4:	02078063          	beqz	a5,3ee4 <iaddr+0x58>
    3ec8:	fe442783          	lw	a5,-28(s0)
    3ecc:	00178713          	addi	a4,a5,1
    3ed0:	fee42223          	sw	a4,-28(s0)
    3ed4:	ff040713          	addi	a4,s0,-16
    3ed8:	00f707b3          	add	a5,a4,a5
    3edc:	02e00713          	li	a4,46
    3ee0:	fce78e23          	sb	a4,-36(a5)
    3ee4:	fec42783          	lw	a5,-20(s0)
    3ee8:	fb842703          	lw	a4,-72(s0)
    3eec:	00f707b3          	add	a5,a4,a5
    3ef0:	0007c783          	lbu	a5,0(a5)
    3ef4:	fef42423          	sw	a5,-24(s0)
    3ef8:	fe842783          	lw	a5,-24(s0)
    3efc:	02079463          	bnez	a5,3f24 <iaddr+0x98>
    3f00:	ca81a703          	lw	a4,-856(gp) # 64b8 <digits>
    3f04:	fe442783          	lw	a5,-28(s0)
    3f08:	00178693          	addi	a3,a5,1
    3f0c:	fed42223          	sw	a3,-28(s0)
    3f10:	00074703          	lbu	a4,0(a4)
    3f14:	ff040693          	addi	a3,s0,-16
    3f18:	00f687b3          	add	a5,a3,a5
    3f1c:	fce78e23          	sb	a4,-36(a5)
    3f20:	1380006f          	j	4058 <iaddr+0x1cc>
    3f24:	fe842703          	lw	a4,-24(s0)
    3f28:	06300793          	li	a5,99
    3f2c:	0ae7d463          	bge	a5,a4,3fd4 <iaddr+0x148>
    3f30:	ca81a483          	lw	s1,-856(gp) # 64b8 <digits>
    3f34:	fe842783          	lw	a5,-24(s0)
    3f38:	06400593          	li	a1,100
    3f3c:	00078513          	mv	a0,a5
    3f40:	135000ef          	jal	ra,4874 <__divsi3>
    3f44:	00050793          	mv	a5,a0
    3f48:	00f48733          	add	a4,s1,a5
    3f4c:	fe442783          	lw	a5,-28(s0)
    3f50:	00178693          	addi	a3,a5,1
    3f54:	fed42223          	sw	a3,-28(s0)
    3f58:	00074703          	lbu	a4,0(a4)
    3f5c:	ff040693          	addi	a3,s0,-16
    3f60:	00f687b3          	add	a5,a3,a5
    3f64:	fce78e23          	sb	a4,-36(a5)
    3f68:	fe842783          	lw	a5,-24(s0)
    3f6c:	06400593          	li	a1,100
    3f70:	00078513          	mv	a0,a5
    3f74:	185000ef          	jal	ra,48f8 <__modsi3>
    3f78:	00050793          	mv	a5,a0
    3f7c:	fef42423          	sw	a5,-24(s0)
    3f80:	ca81a483          	lw	s1,-856(gp) # 64b8 <digits>
    3f84:	fe842783          	lw	a5,-24(s0)
    3f88:	00a00593          	li	a1,10
    3f8c:	00078513          	mv	a0,a5
    3f90:	0e5000ef          	jal	ra,4874 <__divsi3>
    3f94:	00050793          	mv	a5,a0
    3f98:	00f48733          	add	a4,s1,a5
    3f9c:	fe442783          	lw	a5,-28(s0)
    3fa0:	00178693          	addi	a3,a5,1
    3fa4:	fed42223          	sw	a3,-28(s0)
    3fa8:	00074703          	lbu	a4,0(a4)
    3fac:	ff040693          	addi	a3,s0,-16
    3fb0:	00f687b3          	add	a5,a3,a5
    3fb4:	fce78e23          	sb	a4,-36(a5)
    3fb8:	fe842783          	lw	a5,-24(s0)
    3fbc:	00a00593          	li	a1,10
    3fc0:	00078513          	mv	a0,a5
    3fc4:	135000ef          	jal	ra,48f8 <__modsi3>
    3fc8:	00050793          	mv	a5,a0
    3fcc:	fef42423          	sw	a5,-24(s0)
    3fd0:	0600006f          	j	4030 <iaddr+0x1a4>
    3fd4:	fe842703          	lw	a4,-24(s0)
    3fd8:	00900793          	li	a5,9
    3fdc:	04e7da63          	bge	a5,a4,4030 <iaddr+0x1a4>
    3fe0:	ca81a483          	lw	s1,-856(gp) # 64b8 <digits>
    3fe4:	fe842783          	lw	a5,-24(s0)
    3fe8:	00a00593          	li	a1,10
    3fec:	00078513          	mv	a0,a5
    3ff0:	085000ef          	jal	ra,4874 <__divsi3>
    3ff4:	00050793          	mv	a5,a0
    3ff8:	00f48733          	add	a4,s1,a5
    3ffc:	fe442783          	lw	a5,-28(s0)
    4000:	00178693          	addi	a3,a5,1
    4004:	fed42223          	sw	a3,-28(s0)
    4008:	00074703          	lbu	a4,0(a4)
    400c:	ff040693          	addi	a3,s0,-16
    4010:	00f687b3          	add	a5,a3,a5
    4014:	fce78e23          	sb	a4,-36(a5)
    4018:	fe842783          	lw	a5,-24(s0)
    401c:	00a00593          	li	a1,10
    4020:	00078513          	mv	a0,a5
    4024:	0d5000ef          	jal	ra,48f8 <__modsi3>
    4028:	00050793          	mv	a5,a0
    402c:	fef42423          	sw	a5,-24(s0)
    4030:	ca81a703          	lw	a4,-856(gp) # 64b8 <digits>
    4034:	fe842783          	lw	a5,-24(s0)
    4038:	00f70733          	add	a4,a4,a5
    403c:	fe442783          	lw	a5,-28(s0)
    4040:	00178693          	addi	a3,a5,1
    4044:	fed42223          	sw	a3,-28(s0)
    4048:	00074703          	lbu	a4,0(a4)
    404c:	ff040693          	addi	a3,s0,-16
    4050:	00f687b3          	add	a5,a3,a5
    4054:	fce78e23          	sb	a4,-36(a5)
    4058:	fec42783          	lw	a5,-20(s0)
    405c:	00178793          	addi	a5,a5,1
    4060:	fef42623          	sw	a5,-20(s0)
    4064:	fec42703          	lw	a4,-20(s0)
    4068:	00300793          	li	a5,3
    406c:	e4e7dae3          	bge	a5,a4,3ec0 <iaddr+0x34>
    4070:	fac42783          	lw	a5,-84(s0)
    4074:	0107f793          	andi	a5,a5,16
    4078:	02079863          	bnez	a5,40a8 <iaddr+0x21c>
    407c:	0180006f          	j	4094 <iaddr+0x208>
    4080:	fbc42783          	lw	a5,-68(s0)
    4084:	00178713          	addi	a4,a5,1
    4088:	fae42e23          	sw	a4,-68(s0)
    408c:	02000713          	li	a4,32
    4090:	00e78023          	sb	a4,0(a5)
    4094:	fb442783          	lw	a5,-76(s0)
    4098:	fff78713          	addi	a4,a5,-1
    409c:	fae42a23          	sw	a4,-76(s0)
    40a0:	fe442703          	lw	a4,-28(s0)
    40a4:	fcf74ee3          	blt	a4,a5,4080 <iaddr+0x1f4>
    40a8:	fe042623          	sw	zero,-20(s0)
    40ac:	0300006f          	j	40dc <iaddr+0x250>
    40b0:	fbc42783          	lw	a5,-68(s0)
    40b4:	00178713          	addi	a4,a5,1
    40b8:	fae42e23          	sw	a4,-68(s0)
    40bc:	fec42703          	lw	a4,-20(s0)
    40c0:	ff040693          	addi	a3,s0,-16
    40c4:	00e68733          	add	a4,a3,a4
    40c8:	fdc74703          	lbu	a4,-36(a4)
    40cc:	00e78023          	sb	a4,0(a5)
    40d0:	fec42783          	lw	a5,-20(s0)
    40d4:	00178793          	addi	a5,a5,1
    40d8:	fef42623          	sw	a5,-20(s0)
    40dc:	fec42703          	lw	a4,-20(s0)
    40e0:	fe442783          	lw	a5,-28(s0)
    40e4:	fcf746e3          	blt	a4,a5,40b0 <iaddr+0x224>
    40e8:	0180006f          	j	4100 <iaddr+0x274>
    40ec:	fbc42783          	lw	a5,-68(s0)
    40f0:	00178713          	addi	a4,a5,1
    40f4:	fae42e23          	sw	a4,-68(s0)
    40f8:	02000713          	li	a4,32
    40fc:	00e78023          	sb	a4,0(a5)
    4100:	fb442783          	lw	a5,-76(s0)
    4104:	fff78713          	addi	a4,a5,-1
    4108:	fae42a23          	sw	a4,-76(s0)
    410c:	fe442703          	lw	a4,-28(s0)
    4110:	fcf74ee3          	blt	a4,a5,40ec <iaddr+0x260>
    4114:	fbc42783          	lw	a5,-68(s0)
    4118:	00078513          	mv	a0,a5
    411c:	05c12083          	lw	ra,92(sp)
    4120:	05812403          	lw	s0,88(sp)
    4124:	05412483          	lw	s1,84(sp)
    4128:	06010113          	addi	sp,sp,96
    412c:	00008067          	ret

00004130 <ee_vsprintf>:
    4130:	fb010113          	addi	sp,sp,-80
    4134:	04112623          	sw	ra,76(sp)
    4138:	04812423          	sw	s0,72(sp)
    413c:	05010413          	addi	s0,sp,80
    4140:	faa42e23          	sw	a0,-68(s0)
    4144:	fab42c23          	sw	a1,-72(s0)
    4148:	fac42a23          	sw	a2,-76(s0)
    414c:	fbc42783          	lw	a5,-68(s0)
    4150:	fef42023          	sw	a5,-32(s0)
    4154:	5ac0006f          	j	4700 <ee_vsprintf+0x5d0>
    4158:	fb842783          	lw	a5,-72(s0)
    415c:	0007c703          	lbu	a4,0(a5)
    4160:	02500793          	li	a5,37
    4164:	02f70063          	beq	a4,a5,4184 <ee_vsprintf+0x54>
    4168:	fb842703          	lw	a4,-72(s0)
    416c:	fe042783          	lw	a5,-32(s0)
    4170:	00178693          	addi	a3,a5,1
    4174:	fed42023          	sw	a3,-32(s0)
    4178:	00074703          	lbu	a4,0(a4)
    417c:	00e78023          	sb	a4,0(a5)
    4180:	5740006f          	j	46f4 <ee_vsprintf+0x5c4>
    4184:	fc042c23          	sw	zero,-40(s0)
    4188:	fb842783          	lw	a5,-72(s0)
    418c:	00178793          	addi	a5,a5,1
    4190:	faf42c23          	sw	a5,-72(s0)
    4194:	fb842783          	lw	a5,-72(s0)
    4198:	0007c783          	lbu	a5,0(a5)
    419c:	fe078793          	addi	a5,a5,-32
    41a0:	01000713          	li	a4,16
    41a4:	06f76663          	bltu	a4,a5,4210 <ee_vsprintf+0xe0>
    41a8:	00279713          	slli	a4,a5,0x2
    41ac:	000057b7          	lui	a5,0x5
    41b0:	30c78793          	addi	a5,a5,780 # 530c <__errno+0x5d0>
    41b4:	00f707b3          	add	a5,a4,a5
    41b8:	0007a783          	lw	a5,0(a5)
    41bc:	00078067          	jr	a5
    41c0:	fd842783          	lw	a5,-40(s0)
    41c4:	0107e793          	ori	a5,a5,16
    41c8:	fcf42c23          	sw	a5,-40(s0)
    41cc:	fbdff06f          	j	4188 <ee_vsprintf+0x58>
    41d0:	fd842783          	lw	a5,-40(s0)
    41d4:	0047e793          	ori	a5,a5,4
    41d8:	fcf42c23          	sw	a5,-40(s0)
    41dc:	fadff06f          	j	4188 <ee_vsprintf+0x58>
    41e0:	fd842783          	lw	a5,-40(s0)
    41e4:	0087e793          	ori	a5,a5,8
    41e8:	fcf42c23          	sw	a5,-40(s0)
    41ec:	f9dff06f          	j	4188 <ee_vsprintf+0x58>
    41f0:	fd842783          	lw	a5,-40(s0)
    41f4:	0207e793          	ori	a5,a5,32
    41f8:	fcf42c23          	sw	a5,-40(s0)
    41fc:	f8dff06f          	j	4188 <ee_vsprintf+0x58>
    4200:	fd842783          	lw	a5,-40(s0)
    4204:	0017e793          	ori	a5,a5,1
    4208:	fcf42c23          	sw	a5,-40(s0)
    420c:	f7dff06f          	j	4188 <ee_vsprintf+0x58>
    4210:	fff00793          	li	a5,-1
    4214:	fcf42a23          	sw	a5,-44(s0)
    4218:	fb842783          	lw	a5,-72(s0)
    421c:	0007c703          	lbu	a4,0(a5)
    4220:	02f00793          	li	a5,47
    4224:	02e7f463          	bgeu	a5,a4,424c <ee_vsprintf+0x11c>
    4228:	fb842783          	lw	a5,-72(s0)
    422c:	0007c703          	lbu	a4,0(a5)
    4230:	03900793          	li	a5,57
    4234:	00e7ec63          	bltu	a5,a4,424c <ee_vsprintf+0x11c>
    4238:	fb840793          	addi	a5,s0,-72
    423c:	00078513          	mv	a0,a5
    4240:	e70ff0ef          	jal	ra,38b0 <skip_atoi>
    4244:	fca42a23          	sw	a0,-44(s0)
    4248:	0540006f          	j	429c <ee_vsprintf+0x16c>
    424c:	fb842783          	lw	a5,-72(s0)
    4250:	0007c703          	lbu	a4,0(a5)
    4254:	02a00793          	li	a5,42
    4258:	04f71263          	bne	a4,a5,429c <ee_vsprintf+0x16c>
    425c:	fb842783          	lw	a5,-72(s0)
    4260:	00178793          	addi	a5,a5,1
    4264:	faf42c23          	sw	a5,-72(s0)
    4268:	fb442783          	lw	a5,-76(s0)
    426c:	00478713          	addi	a4,a5,4
    4270:	fae42a23          	sw	a4,-76(s0)
    4274:	0007a783          	lw	a5,0(a5)
    4278:	fcf42a23          	sw	a5,-44(s0)
    427c:	fd442783          	lw	a5,-44(s0)
    4280:	0007de63          	bgez	a5,429c <ee_vsprintf+0x16c>
    4284:	fd442783          	lw	a5,-44(s0)
    4288:	40f007b3          	neg	a5,a5
    428c:	fcf42a23          	sw	a5,-44(s0)
    4290:	fd842783          	lw	a5,-40(s0)
    4294:	0107e793          	ori	a5,a5,16
    4298:	fcf42c23          	sw	a5,-40(s0)
    429c:	fff00793          	li	a5,-1
    42a0:	fcf42823          	sw	a5,-48(s0)
    42a4:	fb842783          	lw	a5,-72(s0)
    42a8:	0007c703          	lbu	a4,0(a5)
    42ac:	02e00793          	li	a5,46
    42b0:	08f71063          	bne	a4,a5,4330 <ee_vsprintf+0x200>
    42b4:	fb842783          	lw	a5,-72(s0)
    42b8:	00178793          	addi	a5,a5,1
    42bc:	faf42c23          	sw	a5,-72(s0)
    42c0:	fb842783          	lw	a5,-72(s0)
    42c4:	0007c703          	lbu	a4,0(a5)
    42c8:	02f00793          	li	a5,47
    42cc:	02e7f463          	bgeu	a5,a4,42f4 <ee_vsprintf+0x1c4>
    42d0:	fb842783          	lw	a5,-72(s0)
    42d4:	0007c703          	lbu	a4,0(a5)
    42d8:	03900793          	li	a5,57
    42dc:	00e7ec63          	bltu	a5,a4,42f4 <ee_vsprintf+0x1c4>
    42e0:	fb840793          	addi	a5,s0,-72
    42e4:	00078513          	mv	a0,a5
    42e8:	dc8ff0ef          	jal	ra,38b0 <skip_atoi>
    42ec:	fca42823          	sw	a0,-48(s0)
    42f0:	0340006f          	j	4324 <ee_vsprintf+0x1f4>
    42f4:	fb842783          	lw	a5,-72(s0)
    42f8:	0007c703          	lbu	a4,0(a5)
    42fc:	02a00793          	li	a5,42
    4300:	02f71263          	bne	a4,a5,4324 <ee_vsprintf+0x1f4>
    4304:	fb842783          	lw	a5,-72(s0)
    4308:	00178793          	addi	a5,a5,1
    430c:	faf42c23          	sw	a5,-72(s0)
    4310:	fb442783          	lw	a5,-76(s0)
    4314:	00478713          	addi	a4,a5,4
    4318:	fae42a23          	sw	a4,-76(s0)
    431c:	0007a783          	lw	a5,0(a5)
    4320:	fcf42823          	sw	a5,-48(s0)
    4324:	fd042783          	lw	a5,-48(s0)
    4328:	0007d463          	bgez	a5,4330 <ee_vsprintf+0x200>
    432c:	fc042823          	sw	zero,-48(s0)
    4330:	fff00793          	li	a5,-1
    4334:	fcf42623          	sw	a5,-52(s0)
    4338:	fb842783          	lw	a5,-72(s0)
    433c:	0007c703          	lbu	a4,0(a5)
    4340:	06c00793          	li	a5,108
    4344:	00f70a63          	beq	a4,a5,4358 <ee_vsprintf+0x228>
    4348:	fb842783          	lw	a5,-72(s0)
    434c:	0007c703          	lbu	a4,0(a5)
    4350:	04c00793          	li	a5,76
    4354:	00f71e63          	bne	a4,a5,4370 <ee_vsprintf+0x240>
    4358:	fb842783          	lw	a5,-72(s0)
    435c:	0007c783          	lbu	a5,0(a5)
    4360:	fcf42623          	sw	a5,-52(s0)
    4364:	fb842783          	lw	a5,-72(s0)
    4368:	00178793          	addi	a5,a5,1
    436c:	faf42c23          	sw	a5,-72(s0)
    4370:	00a00793          	li	a5,10
    4374:	fef42223          	sw	a5,-28(s0)
    4378:	fb842783          	lw	a5,-72(s0)
    437c:	0007c783          	lbu	a5,0(a5)
    4380:	fbf78793          	addi	a5,a5,-65
    4384:	03700713          	li	a4,55
    4388:	28f76863          	bltu	a4,a5,4618 <ee_vsprintf+0x4e8>
    438c:	00279713          	slli	a4,a5,0x2
    4390:	000057b7          	lui	a5,0x5
    4394:	35078793          	addi	a5,a5,848 # 5350 <__errno+0x614>
    4398:	00f707b3          	add	a5,a4,a5
    439c:	0007a783          	lw	a5,0(a5)
    43a0:	00078067          	jr	a5
    43a4:	fd842783          	lw	a5,-40(s0)
    43a8:	0107f793          	andi	a5,a5,16
    43ac:	02079863          	bnez	a5,43dc <ee_vsprintf+0x2ac>
    43b0:	0180006f          	j	43c8 <ee_vsprintf+0x298>
    43b4:	fe042783          	lw	a5,-32(s0)
    43b8:	00178713          	addi	a4,a5,1
    43bc:	fee42023          	sw	a4,-32(s0)
    43c0:	02000713          	li	a4,32
    43c4:	00e78023          	sb	a4,0(a5)
    43c8:	fd442783          	lw	a5,-44(s0)
    43cc:	fff78793          	addi	a5,a5,-1
    43d0:	fcf42a23          	sw	a5,-44(s0)
    43d4:	fd442783          	lw	a5,-44(s0)
    43d8:	fcf04ee3          	bgtz	a5,43b4 <ee_vsprintf+0x284>
    43dc:	fb442783          	lw	a5,-76(s0)
    43e0:	00478713          	addi	a4,a5,4
    43e4:	fae42a23          	sw	a4,-76(s0)
    43e8:	0007a683          	lw	a3,0(a5)
    43ec:	fe042783          	lw	a5,-32(s0)
    43f0:	00178713          	addi	a4,a5,1
    43f4:	fee42023          	sw	a4,-32(s0)
    43f8:	0ff6f713          	andi	a4,a3,255
    43fc:	00e78023          	sb	a4,0(a5)
    4400:	0180006f          	j	4418 <ee_vsprintf+0x2e8>
    4404:	fe042783          	lw	a5,-32(s0)
    4408:	00178713          	addi	a4,a5,1
    440c:	fee42023          	sw	a4,-32(s0)
    4410:	02000713          	li	a4,32
    4414:	00e78023          	sb	a4,0(a5)
    4418:	fd442783          	lw	a5,-44(s0)
    441c:	fff78793          	addi	a5,a5,-1
    4420:	fcf42a23          	sw	a5,-44(s0)
    4424:	fd442783          	lw	a5,-44(s0)
    4428:	fcf04ee3          	bgtz	a5,4404 <ee_vsprintf+0x2d4>
    442c:	2c80006f          	j	46f4 <ee_vsprintf+0x5c4>
    4430:	fb442783          	lw	a5,-76(s0)
    4434:	00478713          	addi	a4,a5,4
    4438:	fae42a23          	sw	a4,-76(s0)
    443c:	0007a783          	lw	a5,0(a5)
    4440:	fcf42e23          	sw	a5,-36(s0)
    4444:	fdc42783          	lw	a5,-36(s0)
    4448:	00079863          	bnez	a5,4458 <ee_vsprintf+0x328>
    444c:	000057b7          	lui	a5,0x5
    4450:	30478793          	addi	a5,a5,772 # 5304 <__errno+0x5c8>
    4454:	fcf42e23          	sw	a5,-36(s0)
    4458:	fd042783          	lw	a5,-48(s0)
    445c:	00078593          	mv	a1,a5
    4460:	fdc42503          	lw	a0,-36(s0)
    4464:	be8ff0ef          	jal	ra,384c <strnlen>
    4468:	00050793          	mv	a5,a0
    446c:	fcf42423          	sw	a5,-56(s0)
    4470:	fd842783          	lw	a5,-40(s0)
    4474:	0107f793          	andi	a5,a5,16
    4478:	02079863          	bnez	a5,44a8 <ee_vsprintf+0x378>
    447c:	0180006f          	j	4494 <ee_vsprintf+0x364>
    4480:	fe042783          	lw	a5,-32(s0)
    4484:	00178713          	addi	a4,a5,1
    4488:	fee42023          	sw	a4,-32(s0)
    448c:	02000713          	li	a4,32
    4490:	00e78023          	sb	a4,0(a5)
    4494:	fd442783          	lw	a5,-44(s0)
    4498:	fff78713          	addi	a4,a5,-1
    449c:	fce42a23          	sw	a4,-44(s0)
    44a0:	fc842703          	lw	a4,-56(s0)
    44a4:	fcf74ee3          	blt	a4,a5,4480 <ee_vsprintf+0x350>
    44a8:	fe042423          	sw	zero,-24(s0)
    44ac:	0300006f          	j	44dc <ee_vsprintf+0x3ac>
    44b0:	fdc42703          	lw	a4,-36(s0)
    44b4:	00170793          	addi	a5,a4,1
    44b8:	fcf42e23          	sw	a5,-36(s0)
    44bc:	fe042783          	lw	a5,-32(s0)
    44c0:	00178693          	addi	a3,a5,1
    44c4:	fed42023          	sw	a3,-32(s0)
    44c8:	00074703          	lbu	a4,0(a4)
    44cc:	00e78023          	sb	a4,0(a5)
    44d0:	fe842783          	lw	a5,-24(s0)
    44d4:	00178793          	addi	a5,a5,1
    44d8:	fef42423          	sw	a5,-24(s0)
    44dc:	fe842703          	lw	a4,-24(s0)
    44e0:	fc842783          	lw	a5,-56(s0)
    44e4:	fcf746e3          	blt	a4,a5,44b0 <ee_vsprintf+0x380>
    44e8:	0180006f          	j	4500 <ee_vsprintf+0x3d0>
    44ec:	fe042783          	lw	a5,-32(s0)
    44f0:	00178713          	addi	a4,a5,1
    44f4:	fee42023          	sw	a4,-32(s0)
    44f8:	02000713          	li	a4,32
    44fc:	00e78023          	sb	a4,0(a5)
    4500:	fd442783          	lw	a5,-44(s0)
    4504:	fff78713          	addi	a4,a5,-1
    4508:	fce42a23          	sw	a4,-44(s0)
    450c:	fc842703          	lw	a4,-56(s0)
    4510:	fcf74ee3          	blt	a4,a5,44ec <ee_vsprintf+0x3bc>
    4514:	1e00006f          	j	46f4 <ee_vsprintf+0x5c4>
    4518:	fd442703          	lw	a4,-44(s0)
    451c:	fff00793          	li	a5,-1
    4520:	00f71c63          	bne	a4,a5,4538 <ee_vsprintf+0x408>
    4524:	00800793          	li	a5,8
    4528:	fcf42a23          	sw	a5,-44(s0)
    452c:	fd842783          	lw	a5,-40(s0)
    4530:	0017e793          	ori	a5,a5,1
    4534:	fcf42c23          	sw	a5,-40(s0)
    4538:	fb442783          	lw	a5,-76(s0)
    453c:	00478713          	addi	a4,a5,4
    4540:	fae42a23          	sw	a4,-76(s0)
    4544:	0007a783          	lw	a5,0(a5)
    4548:	00078593          	mv	a1,a5
    454c:	fd842783          	lw	a5,-40(s0)
    4550:	fd042703          	lw	a4,-48(s0)
    4554:	fd442683          	lw	a3,-44(s0)
    4558:	01000613          	li	a2,16
    455c:	fe042503          	lw	a0,-32(s0)
    4560:	be0ff0ef          	jal	ra,3940 <number>
    4564:	fea42023          	sw	a0,-32(s0)
    4568:	18c0006f          	j	46f4 <ee_vsprintf+0x5c4>
    456c:	fd842783          	lw	a5,-40(s0)
    4570:	0407e793          	ori	a5,a5,64
    4574:	fcf42c23          	sw	a5,-40(s0)
    4578:	fcc42703          	lw	a4,-52(s0)
    457c:	06c00793          	li	a5,108
    4580:	02f71a63          	bne	a4,a5,45b4 <ee_vsprintf+0x484>
    4584:	fb442783          	lw	a5,-76(s0)
    4588:	00478713          	addi	a4,a5,4
    458c:	fae42a23          	sw	a4,-76(s0)
    4590:	0007a783          	lw	a5,0(a5)
    4594:	fd842703          	lw	a4,-40(s0)
    4598:	fd042683          	lw	a3,-48(s0)
    459c:	fd442603          	lw	a2,-44(s0)
    45a0:	00078593          	mv	a1,a5
    45a4:	fe042503          	lw	a0,-32(s0)
    45a8:	f30ff0ef          	jal	ra,3cd8 <eaddr>
    45ac:	fea42023          	sw	a0,-32(s0)
    45b0:	1440006f          	j	46f4 <ee_vsprintf+0x5c4>
    45b4:	fb442783          	lw	a5,-76(s0)
    45b8:	00478713          	addi	a4,a5,4
    45bc:	fae42a23          	sw	a4,-76(s0)
    45c0:	0007a783          	lw	a5,0(a5)
    45c4:	fd842703          	lw	a4,-40(s0)
    45c8:	fd042683          	lw	a3,-48(s0)
    45cc:	fd442603          	lw	a2,-44(s0)
    45d0:	00078593          	mv	a1,a5
    45d4:	fe042503          	lw	a0,-32(s0)
    45d8:	8b5ff0ef          	jal	ra,3e8c <iaddr>
    45dc:	fea42023          	sw	a0,-32(s0)
    45e0:	1140006f          	j	46f4 <ee_vsprintf+0x5c4>
    45e4:	00800793          	li	a5,8
    45e8:	fef42223          	sw	a5,-28(s0)
    45ec:	08c0006f          	j	4678 <ee_vsprintf+0x548>
    45f0:	fd842783          	lw	a5,-40(s0)
    45f4:	0407e793          	ori	a5,a5,64
    45f8:	fcf42c23          	sw	a5,-40(s0)
    45fc:	01000793          	li	a5,16
    4600:	fef42223          	sw	a5,-28(s0)
    4604:	0740006f          	j	4678 <ee_vsprintf+0x548>
    4608:	fd842783          	lw	a5,-40(s0)
    460c:	0027e793          	ori	a5,a5,2
    4610:	fcf42c23          	sw	a5,-40(s0)
    4614:	0600006f          	j	4674 <ee_vsprintf+0x544>
    4618:	fb842783          	lw	a5,-72(s0)
    461c:	0007c703          	lbu	a4,0(a5)
    4620:	02500793          	li	a5,37
    4624:	00f70c63          	beq	a4,a5,463c <ee_vsprintf+0x50c>
    4628:	fe042783          	lw	a5,-32(s0)
    462c:	00178713          	addi	a4,a5,1
    4630:	fee42023          	sw	a4,-32(s0)
    4634:	02500713          	li	a4,37
    4638:	00e78023          	sb	a4,0(a5)
    463c:	fb842783          	lw	a5,-72(s0)
    4640:	0007c783          	lbu	a5,0(a5)
    4644:	02078063          	beqz	a5,4664 <ee_vsprintf+0x534>
    4648:	fb842703          	lw	a4,-72(s0)
    464c:	fe042783          	lw	a5,-32(s0)
    4650:	00178693          	addi	a3,a5,1
    4654:	fed42023          	sw	a3,-32(s0)
    4658:	00074703          	lbu	a4,0(a4)
    465c:	00e78023          	sb	a4,0(a5)
    4660:	0940006f          	j	46f4 <ee_vsprintf+0x5c4>
    4664:	fb842783          	lw	a5,-72(s0)
    4668:	fff78793          	addi	a5,a5,-1
    466c:	faf42c23          	sw	a5,-72(s0)
    4670:	0840006f          	j	46f4 <ee_vsprintf+0x5c4>
    4674:	00000013          	nop
    4678:	fcc42703          	lw	a4,-52(s0)
    467c:	06c00793          	li	a5,108
    4680:	00f71e63          	bne	a4,a5,469c <ee_vsprintf+0x56c>
    4684:	fb442783          	lw	a5,-76(s0)
    4688:	00478713          	addi	a4,a5,4
    468c:	fae42a23          	sw	a4,-76(s0)
    4690:	0007a783          	lw	a5,0(a5)
    4694:	fef42623          	sw	a5,-20(s0)
    4698:	03c0006f          	j	46d4 <ee_vsprintf+0x5a4>
    469c:	fd842783          	lw	a5,-40(s0)
    46a0:	0027f793          	andi	a5,a5,2
    46a4:	00078e63          	beqz	a5,46c0 <ee_vsprintf+0x590>
    46a8:	fb442783          	lw	a5,-76(s0)
    46ac:	00478713          	addi	a4,a5,4
    46b0:	fae42a23          	sw	a4,-76(s0)
    46b4:	0007a783          	lw	a5,0(a5)
    46b8:	fef42623          	sw	a5,-20(s0)
    46bc:	0180006f          	j	46d4 <ee_vsprintf+0x5a4>
    46c0:	fb442783          	lw	a5,-76(s0)
    46c4:	00478713          	addi	a4,a5,4
    46c8:	fae42a23          	sw	a4,-76(s0)
    46cc:	0007a783          	lw	a5,0(a5)
    46d0:	fef42623          	sw	a5,-20(s0)
    46d4:	fec42583          	lw	a1,-20(s0)
    46d8:	fd842783          	lw	a5,-40(s0)
    46dc:	fd042703          	lw	a4,-48(s0)
    46e0:	fd442683          	lw	a3,-44(s0)
    46e4:	fe442603          	lw	a2,-28(s0)
    46e8:	fe042503          	lw	a0,-32(s0)
    46ec:	a54ff0ef          	jal	ra,3940 <number>
    46f0:	fea42023          	sw	a0,-32(s0)
    46f4:	fb842783          	lw	a5,-72(s0)
    46f8:	00178793          	addi	a5,a5,1
    46fc:	faf42c23          	sw	a5,-72(s0)
    4700:	fb842783          	lw	a5,-72(s0)
    4704:	0007c783          	lbu	a5,0(a5)
    4708:	a40798e3          	bnez	a5,4158 <ee_vsprintf+0x28>
    470c:	fe042783          	lw	a5,-32(s0)
    4710:	00078023          	sb	zero,0(a5)
    4714:	fe042703          	lw	a4,-32(s0)
    4718:	fbc42783          	lw	a5,-68(s0)
    471c:	40f707b3          	sub	a5,a4,a5
    4720:	00078513          	mv	a0,a5
    4724:	04c12083          	lw	ra,76(sp)
    4728:	04812403          	lw	s0,72(sp)
    472c:	05010113          	addi	sp,sp,80
    4730:	00008067          	ret

00004734 <uart_send_char>:
    4734:	fd010113          	addi	sp,sp,-48
    4738:	02812623          	sw	s0,44(sp)
    473c:	03010413          	addi	s0,sp,48
    4740:	00050793          	mv	a5,a0
    4744:	fcf40fa3          	sb	a5,-33(s0)
    4748:	000107b7          	lui	a5,0x10
    474c:	fef42623          	sw	a5,-20(s0)
    4750:	00000013          	nop
    4754:	fec42783          	lw	a5,-20(s0)
    4758:	0007c703          	lbu	a4,0(a5) # 10000 <__BSS_END__+0x9338>
    475c:	00100793          	li	a5,1
    4760:	fef71ae3          	bne	a4,a5,4754 <uart_send_char+0x20>
    4764:	fec42783          	lw	a5,-20(s0)
    4768:	fdf44703          	lbu	a4,-33(s0)
    476c:	00e78023          	sb	a4,0(a5)
    4770:	00000013          	nop
    4774:	fec42783          	lw	a5,-20(s0)
    4778:	0007c703          	lbu	a4,0(a5)
    477c:	00100793          	li	a5,1
    4780:	fef71ae3          	bne	a4,a5,4774 <uart_send_char+0x40>
    4784:	00000013          	nop
    4788:	00000013          	nop
    478c:	02c12403          	lw	s0,44(sp)
    4790:	03010113          	addi	sp,sp,48
    4794:	00008067          	ret

00004798 <ee_printf>:
    4798:	eb010113          	addi	sp,sp,-336
    479c:	12112623          	sw	ra,300(sp)
    47a0:	12812423          	sw	s0,296(sp)
    47a4:	13010413          	addi	s0,sp,304
    47a8:	eca42e23          	sw	a0,-292(s0)
    47ac:	00b42223          	sw	a1,4(s0)
    47b0:	00c42423          	sw	a2,8(s0)
    47b4:	00d42623          	sw	a3,12(s0)
    47b8:	00e42823          	sw	a4,16(s0)
    47bc:	00f42a23          	sw	a5,20(s0)
    47c0:	01042c23          	sw	a6,24(s0)
    47c4:	01142e23          	sw	a7,28(s0)
    47c8:	fe042423          	sw	zero,-24(s0)
    47cc:	02040793          	addi	a5,s0,32
    47d0:	ecf42c23          	sw	a5,-296(s0)
    47d4:	ed842783          	lw	a5,-296(s0)
    47d8:	fe478793          	addi	a5,a5,-28
    47dc:	eef42223          	sw	a5,-284(s0)
    47e0:	ee442703          	lw	a4,-284(s0)
    47e4:	ee840793          	addi	a5,s0,-280
    47e8:	00070613          	mv	a2,a4
    47ec:	edc42583          	lw	a1,-292(s0)
    47f0:	00078513          	mv	a0,a5
    47f4:	93dff0ef          	jal	ra,4130 <ee_vsprintf>
    47f8:	ee840793          	addi	a5,s0,-280
    47fc:	fef42623          	sw	a5,-20(s0)
    4800:	02c0006f          	j	482c <ee_printf+0x94>
    4804:	fec42783          	lw	a5,-20(s0)
    4808:	0007c783          	lbu	a5,0(a5)
    480c:	00078513          	mv	a0,a5
    4810:	f25ff0ef          	jal	ra,4734 <uart_send_char>
    4814:	fe842783          	lw	a5,-24(s0)
    4818:	00178793          	addi	a5,a5,1
    481c:	fef42423          	sw	a5,-24(s0)
    4820:	fec42783          	lw	a5,-20(s0)
    4824:	00178793          	addi	a5,a5,1
    4828:	fef42623          	sw	a5,-20(s0)
    482c:	fec42783          	lw	a5,-20(s0)
    4830:	0007c783          	lbu	a5,0(a5)
    4834:	fc0798e3          	bnez	a5,4804 <ee_printf+0x6c>
    4838:	fe842783          	lw	a5,-24(s0)
    483c:	00078513          	mv	a0,a5
    4840:	12c12083          	lw	ra,300(sp)
    4844:	12812403          	lw	s0,296(sp)
    4848:	15010113          	addi	sp,sp,336
    484c:	00008067          	ret

00004850 <__mulsi3>:
    4850:	00050613          	mv	a2,a0
    4854:	00000513          	li	a0,0
    4858:	0015f693          	andi	a3,a1,1
    485c:	00068463          	beqz	a3,4864 <__mulsi3+0x14>
    4860:	00c50533          	add	a0,a0,a2
    4864:	0015d593          	srli	a1,a1,0x1
    4868:	00161613          	slli	a2,a2,0x1
    486c:	fe0596e3          	bnez	a1,4858 <__mulsi3+0x8>
    4870:	00008067          	ret

00004874 <__divsi3>:
    4874:	06054063          	bltz	a0,48d4 <__umodsi3+0x10>
    4878:	0605c663          	bltz	a1,48e4 <__umodsi3+0x20>

0000487c <__udivsi3>:
    487c:	00058613          	mv	a2,a1
    4880:	00050593          	mv	a1,a0
    4884:	fff00513          	li	a0,-1
    4888:	02060c63          	beqz	a2,48c0 <__udivsi3+0x44>
    488c:	00100693          	li	a3,1
    4890:	00b67a63          	bgeu	a2,a1,48a4 <__udivsi3+0x28>
    4894:	00c05863          	blez	a2,48a4 <__udivsi3+0x28>
    4898:	00161613          	slli	a2,a2,0x1
    489c:	00169693          	slli	a3,a3,0x1
    48a0:	feb66ae3          	bltu	a2,a1,4894 <__udivsi3+0x18>
    48a4:	00000513          	li	a0,0
    48a8:	00c5e663          	bltu	a1,a2,48b4 <__udivsi3+0x38>
    48ac:	40c585b3          	sub	a1,a1,a2
    48b0:	00d56533          	or	a0,a0,a3
    48b4:	0016d693          	srli	a3,a3,0x1
    48b8:	00165613          	srli	a2,a2,0x1
    48bc:	fe0696e3          	bnez	a3,48a8 <__udivsi3+0x2c>
    48c0:	00008067          	ret

000048c4 <__umodsi3>:
    48c4:	00008293          	mv	t0,ra
    48c8:	fb5ff0ef          	jal	ra,487c <__udivsi3>
    48cc:	00058513          	mv	a0,a1
    48d0:	00028067          	jr	t0
    48d4:	40a00533          	neg	a0,a0
    48d8:	00b04863          	bgtz	a1,48e8 <__umodsi3+0x24>
    48dc:	40b005b3          	neg	a1,a1
    48e0:	f9dff06f          	j	487c <__udivsi3>
    48e4:	40b005b3          	neg	a1,a1
    48e8:	00008293          	mv	t0,ra
    48ec:	f91ff0ef          	jal	ra,487c <__udivsi3>
    48f0:	40a00533          	neg	a0,a0
    48f4:	00028067          	jr	t0

000048f8 <__modsi3>:
    48f8:	00008293          	mv	t0,ra
    48fc:	0005ca63          	bltz	a1,4910 <__modsi3+0x18>
    4900:	00054c63          	bltz	a0,4918 <__modsi3+0x20>
    4904:	f79ff0ef          	jal	ra,487c <__udivsi3>
    4908:	00058513          	mv	a0,a1
    490c:	00028067          	jr	t0
    4910:	40b005b3          	neg	a1,a1
    4914:	fe0558e3          	bgez	a0,4904 <__modsi3+0xc>
    4918:	40a00533          	neg	a0,a0
    491c:	f61ff0ef          	jal	ra,487c <__udivsi3>
    4920:	40b00533          	neg	a0,a1
    4924:	00028067          	jr	t0

00004928 <exit>:
    4928:	ff010113          	addi	sp,sp,-16
    492c:	00000593          	li	a1,0
    4930:	00812423          	sw	s0,8(sp)
    4934:	00112623          	sw	ra,12(sp)
    4938:	00050413          	mv	s0,a0
    493c:	194000ef          	jal	ra,4ad0 <__call_exitprocs>
    4940:	c981a503          	lw	a0,-872(gp) # 64a8 <_global_impure_ptr>
    4944:	03c52783          	lw	a5,60(a0) # 603c <mem_name+0x8>
    4948:	00078463          	beqz	a5,4950 <exit+0x28>
    494c:	000780e7          	jalr	a5
    4950:	00040513          	mv	a0,s0
    4954:	3a4000ef          	jal	ra,4cf8 <_exit>

00004958 <__libc_init_array>:
    4958:	ff010113          	addi	sp,sp,-16
    495c:	00812423          	sw	s0,8(sp)
    4960:	01212023          	sw	s2,0(sp)
    4964:	00006437          	lui	s0,0x6
    4968:	00006937          	lui	s2,0x6
    496c:	00440793          	addi	a5,s0,4 # 6004 <__init_array_start>
    4970:	00490913          	addi	s2,s2,4 # 6004 <__init_array_start>
    4974:	40f90933          	sub	s2,s2,a5
    4978:	00112623          	sw	ra,12(sp)
    497c:	00912223          	sw	s1,4(sp)
    4980:	40295913          	srai	s2,s2,0x2
    4984:	02090063          	beqz	s2,49a4 <__libc_init_array+0x4c>
    4988:	00440413          	addi	s0,s0,4
    498c:	00000493          	li	s1,0
    4990:	00042783          	lw	a5,0(s0)
    4994:	00148493          	addi	s1,s1,1
    4998:	00440413          	addi	s0,s0,4
    499c:	000780e7          	jalr	a5
    49a0:	fe9918e3          	bne	s2,s1,4990 <__libc_init_array+0x38>
    49a4:	00006437          	lui	s0,0x6
    49a8:	00006937          	lui	s2,0x6
    49ac:	00440793          	addi	a5,s0,4 # 6004 <__init_array_start>
    49b0:	00c90913          	addi	s2,s2,12 # 600c <__do_global_dtors_aux_fini_array_entry>
    49b4:	40f90933          	sub	s2,s2,a5
    49b8:	40295913          	srai	s2,s2,0x2
    49bc:	02090063          	beqz	s2,49dc <__libc_init_array+0x84>
    49c0:	00440413          	addi	s0,s0,4
    49c4:	00000493          	li	s1,0
    49c8:	00042783          	lw	a5,0(s0)
    49cc:	00148493          	addi	s1,s1,1
    49d0:	00440413          	addi	s0,s0,4
    49d4:	000780e7          	jalr	a5
    49d8:	fe9918e3          	bne	s2,s1,49c8 <__libc_init_array+0x70>
    49dc:	00c12083          	lw	ra,12(sp)
    49e0:	00812403          	lw	s0,8(sp)
    49e4:	00412483          	lw	s1,4(sp)
    49e8:	00012903          	lw	s2,0(sp)
    49ec:	01010113          	addi	sp,sp,16
    49f0:	00008067          	ret

000049f4 <memset>:
    49f4:	00f00313          	li	t1,15
    49f8:	00050713          	mv	a4,a0
    49fc:	02c37e63          	bgeu	t1,a2,4a38 <memset+0x44>
    4a00:	00f77793          	andi	a5,a4,15
    4a04:	0a079063          	bnez	a5,4aa4 <memset+0xb0>
    4a08:	08059263          	bnez	a1,4a8c <memset+0x98>
    4a0c:	ff067693          	andi	a3,a2,-16
    4a10:	00f67613          	andi	a2,a2,15
    4a14:	00e686b3          	add	a3,a3,a4
    4a18:	00b72023          	sw	a1,0(a4)
    4a1c:	00b72223          	sw	a1,4(a4)
    4a20:	00b72423          	sw	a1,8(a4)
    4a24:	00b72623          	sw	a1,12(a4)
    4a28:	01070713          	addi	a4,a4,16
    4a2c:	fed766e3          	bltu	a4,a3,4a18 <memset+0x24>
    4a30:	00061463          	bnez	a2,4a38 <memset+0x44>
    4a34:	00008067          	ret
    4a38:	40c306b3          	sub	a3,t1,a2
    4a3c:	00269693          	slli	a3,a3,0x2
    4a40:	00000297          	auipc	t0,0x0
    4a44:	005686b3          	add	a3,a3,t0
    4a48:	00c68067          	jr	12(a3)
    4a4c:	00b70723          	sb	a1,14(a4)
    4a50:	00b706a3          	sb	a1,13(a4)
    4a54:	00b70623          	sb	a1,12(a4)
    4a58:	00b705a3          	sb	a1,11(a4)
    4a5c:	00b70523          	sb	a1,10(a4)
    4a60:	00b704a3          	sb	a1,9(a4)
    4a64:	00b70423          	sb	a1,8(a4)
    4a68:	00b703a3          	sb	a1,7(a4)
    4a6c:	00b70323          	sb	a1,6(a4)
    4a70:	00b702a3          	sb	a1,5(a4)
    4a74:	00b70223          	sb	a1,4(a4)
    4a78:	00b701a3          	sb	a1,3(a4)
    4a7c:	00b70123          	sb	a1,2(a4)
    4a80:	00b700a3          	sb	a1,1(a4)
    4a84:	00b70023          	sb	a1,0(a4)
    4a88:	00008067          	ret
    4a8c:	0ff5f593          	andi	a1,a1,255
    4a90:	00859693          	slli	a3,a1,0x8
    4a94:	00d5e5b3          	or	a1,a1,a3
    4a98:	01059693          	slli	a3,a1,0x10
    4a9c:	00d5e5b3          	or	a1,a1,a3
    4aa0:	f6dff06f          	j	4a0c <memset+0x18>
    4aa4:	00279693          	slli	a3,a5,0x2
    4aa8:	00000297          	auipc	t0,0x0
    4aac:	005686b3          	add	a3,a3,t0
    4ab0:	00008293          	mv	t0,ra
    4ab4:	fa0680e7          	jalr	-96(a3)
    4ab8:	00028093          	mv	ra,t0
    4abc:	ff078793          	addi	a5,a5,-16
    4ac0:	40f70733          	sub	a4,a4,a5
    4ac4:	00f60633          	add	a2,a2,a5
    4ac8:	f6c378e3          	bgeu	t1,a2,4a38 <memset+0x44>
    4acc:	f3dff06f          	j	4a08 <memset+0x14>

00004ad0 <__call_exitprocs>:
    4ad0:	fd010113          	addi	sp,sp,-48
    4ad4:	01412c23          	sw	s4,24(sp)
    4ad8:	c981aa03          	lw	s4,-872(gp) # 64a8 <_global_impure_ptr>
    4adc:	03212023          	sw	s2,32(sp)
    4ae0:	02112623          	sw	ra,44(sp)
    4ae4:	148a2903          	lw	s2,328(s4)
    4ae8:	02812423          	sw	s0,40(sp)
    4aec:	02912223          	sw	s1,36(sp)
    4af0:	01312e23          	sw	s3,28(sp)
    4af4:	01512a23          	sw	s5,20(sp)
    4af8:	01612823          	sw	s6,16(sp)
    4afc:	01712623          	sw	s7,12(sp)
    4b00:	01812423          	sw	s8,8(sp)
    4b04:	04090063          	beqz	s2,4b44 <__call_exitprocs+0x74>
    4b08:	00050b13          	mv	s6,a0
    4b0c:	00058b93          	mv	s7,a1
    4b10:	00100a93          	li	s5,1
    4b14:	fff00993          	li	s3,-1
    4b18:	00492483          	lw	s1,4(s2)
    4b1c:	fff48413          	addi	s0,s1,-1
    4b20:	02044263          	bltz	s0,4b44 <__call_exitprocs+0x74>
    4b24:	00249493          	slli	s1,s1,0x2
    4b28:	009904b3          	add	s1,s2,s1
    4b2c:	040b8463          	beqz	s7,4b74 <__call_exitprocs+0xa4>
    4b30:	1044a783          	lw	a5,260(s1)
    4b34:	05778063          	beq	a5,s7,4b74 <__call_exitprocs+0xa4>
    4b38:	fff40413          	addi	s0,s0,-1
    4b3c:	ffc48493          	addi	s1,s1,-4
    4b40:	ff3416e3          	bne	s0,s3,4b2c <__call_exitprocs+0x5c>
    4b44:	02c12083          	lw	ra,44(sp)
    4b48:	02812403          	lw	s0,40(sp)
    4b4c:	02412483          	lw	s1,36(sp)
    4b50:	02012903          	lw	s2,32(sp)
    4b54:	01c12983          	lw	s3,28(sp)
    4b58:	01812a03          	lw	s4,24(sp)
    4b5c:	01412a83          	lw	s5,20(sp)
    4b60:	01012b03          	lw	s6,16(sp)
    4b64:	00c12b83          	lw	s7,12(sp)
    4b68:	00812c03          	lw	s8,8(sp)
    4b6c:	03010113          	addi	sp,sp,48
    4b70:	00008067          	ret
    4b74:	00492783          	lw	a5,4(s2)
    4b78:	0044a683          	lw	a3,4(s1)
    4b7c:	fff78793          	addi	a5,a5,-1
    4b80:	04878e63          	beq	a5,s0,4bdc <__call_exitprocs+0x10c>
    4b84:	0004a223          	sw	zero,4(s1)
    4b88:	fa0688e3          	beqz	a3,4b38 <__call_exitprocs+0x68>
    4b8c:	18892783          	lw	a5,392(s2)
    4b90:	008a9733          	sll	a4,s5,s0
    4b94:	00492c03          	lw	s8,4(s2)
    4b98:	00f777b3          	and	a5,a4,a5
    4b9c:	02079263          	bnez	a5,4bc0 <__call_exitprocs+0xf0>
    4ba0:	000680e7          	jalr	a3
    4ba4:	00492703          	lw	a4,4(s2)
    4ba8:	148a2783          	lw	a5,328(s4)
    4bac:	01871463          	bne	a4,s8,4bb4 <__call_exitprocs+0xe4>
    4bb0:	f92784e3          	beq	a5,s2,4b38 <__call_exitprocs+0x68>
    4bb4:	f80788e3          	beqz	a5,4b44 <__call_exitprocs+0x74>
    4bb8:	00078913          	mv	s2,a5
    4bbc:	f5dff06f          	j	4b18 <__call_exitprocs+0x48>
    4bc0:	18c92783          	lw	a5,396(s2)
    4bc4:	0844a583          	lw	a1,132(s1)
    4bc8:	00f77733          	and	a4,a4,a5
    4bcc:	00071c63          	bnez	a4,4be4 <__call_exitprocs+0x114>
    4bd0:	000b0513          	mv	a0,s6
    4bd4:	000680e7          	jalr	a3
    4bd8:	fcdff06f          	j	4ba4 <__call_exitprocs+0xd4>
    4bdc:	00892223          	sw	s0,4(s2)
    4be0:	fa9ff06f          	j	4b88 <__call_exitprocs+0xb8>
    4be4:	00058513          	mv	a0,a1
    4be8:	000680e7          	jalr	a3
    4bec:	fb9ff06f          	j	4ba4 <__call_exitprocs+0xd4>

00004bf0 <__libc_fini_array>:
    4bf0:	ff010113          	addi	sp,sp,-16
    4bf4:	00812423          	sw	s0,8(sp)
    4bf8:	000067b7          	lui	a5,0x6
    4bfc:	00006437          	lui	s0,0x6
    4c00:	00c40413          	addi	s0,s0,12 # 600c <__do_global_dtors_aux_fini_array_entry>
    4c04:	01078793          	addi	a5,a5,16 # 6010 <list_known_crc>
    4c08:	408787b3          	sub	a5,a5,s0
    4c0c:	00912223          	sw	s1,4(sp)
    4c10:	00112623          	sw	ra,12(sp)
    4c14:	4027d493          	srai	s1,a5,0x2
    4c18:	02048063          	beqz	s1,4c38 <__libc_fini_array+0x48>
    4c1c:	ffc78793          	addi	a5,a5,-4
    4c20:	00878433          	add	s0,a5,s0
    4c24:	00042783          	lw	a5,0(s0)
    4c28:	fff48493          	addi	s1,s1,-1
    4c2c:	ffc40413          	addi	s0,s0,-4
    4c30:	000780e7          	jalr	a5
    4c34:	fe0498e3          	bnez	s1,4c24 <__libc_fini_array+0x34>
    4c38:	00c12083          	lw	ra,12(sp)
    4c3c:	00812403          	lw	s0,8(sp)
    4c40:	00412483          	lw	s1,4(sp)
    4c44:	01010113          	addi	sp,sp,16
    4c48:	00008067          	ret

00004c4c <atexit>:
    4c4c:	00050593          	mv	a1,a0
    4c50:	00000693          	li	a3,0
    4c54:	00000613          	li	a2,0
    4c58:	00000513          	li	a0,0
    4c5c:	0040006f          	j	4c60 <__register_exitproc>

00004c60 <__register_exitproc>:
    4c60:	c981a703          	lw	a4,-872(gp) # 64a8 <_global_impure_ptr>
    4c64:	14872783          	lw	a5,328(a4)
    4c68:	04078c63          	beqz	a5,4cc0 <__register_exitproc+0x60>
    4c6c:	0047a703          	lw	a4,4(a5)
    4c70:	01f00813          	li	a6,31
    4c74:	06e84e63          	blt	a6,a4,4cf0 <__register_exitproc+0x90>
    4c78:	00271813          	slli	a6,a4,0x2
    4c7c:	02050663          	beqz	a0,4ca8 <__register_exitproc+0x48>
    4c80:	01078333          	add	t1,a5,a6
    4c84:	08c32423          	sw	a2,136(t1) # 1b4 <calc_func+0x7c>
    4c88:	1887a883          	lw	a7,392(a5)
    4c8c:	00100613          	li	a2,1
    4c90:	00e61633          	sll	a2,a2,a4
    4c94:	00c8e8b3          	or	a7,a7,a2
    4c98:	1917a423          	sw	a7,392(a5)
    4c9c:	10d32423          	sw	a3,264(t1)
    4ca0:	00200693          	li	a3,2
    4ca4:	02d50463          	beq	a0,a3,4ccc <__register_exitproc+0x6c>
    4ca8:	00170713          	addi	a4,a4,1
    4cac:	00e7a223          	sw	a4,4(a5)
    4cb0:	010787b3          	add	a5,a5,a6
    4cb4:	00b7a423          	sw	a1,8(a5)
    4cb8:	00000513          	li	a0,0
    4cbc:	00008067          	ret
    4cc0:	14c70793          	addi	a5,a4,332
    4cc4:	14f72423          	sw	a5,328(a4)
    4cc8:	fa5ff06f          	j	4c6c <__register_exitproc+0xc>
    4ccc:	18c7a683          	lw	a3,396(a5)
    4cd0:	00170713          	addi	a4,a4,1
    4cd4:	00e7a223          	sw	a4,4(a5)
    4cd8:	00c6e633          	or	a2,a3,a2
    4cdc:	18c7a623          	sw	a2,396(a5)
    4ce0:	010787b3          	add	a5,a5,a6
    4ce4:	00b7a423          	sw	a1,8(a5)
    4ce8:	00000513          	li	a0,0
    4cec:	00008067          	ret
    4cf0:	fff00513          	li	a0,-1
    4cf4:	00008067          	ret

00004cf8 <_exit>:
    4cf8:	00000593          	li	a1,0
    4cfc:	00000613          	li	a2,0
    4d00:	00000693          	li	a3,0
    4d04:	00000713          	li	a4,0
    4d08:	00000793          	li	a5,0
    4d0c:	05d00893          	li	a7,93
    4d10:	00000073          	ecall
    4d14:	00054463          	bltz	a0,4d1c <_exit+0x24>
    4d18:	0000006f          	j	4d18 <_exit+0x20>
    4d1c:	ff010113          	addi	sp,sp,-16
    4d20:	00812423          	sw	s0,8(sp)
    4d24:	00050413          	mv	s0,a0
    4d28:	00112623          	sw	ra,12(sp)
    4d2c:	40800433          	neg	s0,s0
    4d30:	00c000ef          	jal	ra,4d3c <__errno>
    4d34:	00852023          	sw	s0,0(a0)
    4d38:	0000006f          	j	4d38 <_exit+0x40>

00004d3c <__errno>:
    4d3c:	cb01a503          	lw	a0,-848(gp) # 64c0 <_impure_ptr>
    4d40:	00008067          	ret

Desmontagem da seção .rodata:

00004d44 <.rodata>:
    4d44:	74617453          	0x74617453
    4d48:	6369                	lui	t1,0x1a
    4d4a:	0000                	unimp
    4d4c:	6548                	flw	fa0,12(a0)
    4d4e:	7061                	c.lui	zero,0xffff8
    4d50:	0000                	unimp
    4d52:	0000                	unimp
    4d54:	63617453          	0x63617453
    4d58:	0000006b          	0x6b
    4d5c:	6b36                	flw	fs6,76(sp)
    4d5e:	7020                	flw	fs0,96(s0)
    4d60:	7265                	lui	tp,0xffff9
    4d62:	6f66                	flw	ft10,88(sp)
    4d64:	6d72                	flw	fs10,28(sp)
    4d66:	6e61                	lui	t3,0x18
    4d68:	72206563          	bltu	zero,sp,5492 <__errno+0x756>
    4d6c:	6e75                	lui	t3,0x1d
    4d6e:	7020                	flw	fs0,96(s0)
    4d70:	7261                	lui	tp,0xffff8
    4d72:	6d61                	lui	s10,0x18
    4d74:	7465                	lui	s0,0xffff9
    4d76:	7265                	lui	tp,0xffff9
    4d78:	6f662073          	csrs	0x6f6,a2
    4d7c:	2072                	fld	ft0,280(sp)
    4d7e:	65726f63          	bltu	tp,s7,53dc <__errno+0x6a0>
    4d82:	616d                	addi	sp,sp,240
    4d84:	6b72                	flw	fs6,28(sp)
    4d86:	0a2e                	slli	s4,s4,0xb
    4d88:	0000                	unimp
    4d8a:	0000                	unimp
    4d8c:	6b36                	flw	fs6,76(sp)
    4d8e:	7620                	flw	fs0,104(a2)
    4d90:	6c61                	lui	s8,0x18
    4d92:	6469                	lui	s0,0x1a
    4d94:	7461                	lui	s0,0xffff8
    4d96:	6f69                	lui	t5,0x1a
    4d98:	206e                	fld	ft0,216(sp)
    4d9a:	7572                	flw	fa0,60(sp)
    4d9c:	206e                	fld	ft0,216(sp)
    4d9e:	6170                	flw	fa2,68(a0)
    4da0:	6172                	flw	ft2,28(sp)
    4da2:	656d                	lui	a0,0x1b
    4da4:	6574                	flw	fa3,76(a0)
    4da6:	7372                	flw	ft6,60(sp)
    4da8:	6620                	flw	fs0,72(a2)
    4daa:	6320726f          	jal	tp,c3dc <__BSS_END__+0x5714>
    4dae:	6d65726f          	jal	tp,5c484 <__BSS_END__+0x557bc>
    4db2:	7261                	lui	tp,0xffff8
    4db4:	000a2e6b          	0xa2e6b
    4db8:	7250                	flw	fa2,36(a2)
    4dba:	6c69666f          	jal	a2,9b480 <__BSS_END__+0x947b8>
    4dbe:	2065                	jal	4e66 <__errno+0x12a>
    4dc0:	656e6567          	0x656e6567
    4dc4:	6172                	flw	ft2,28(sp)
    4dc6:	6974                	flw	fa3,84(a0)
    4dc8:	72206e6f          	jal	t3,b4ea <__BSS_END__+0x4822>
    4dcc:	6e75                	lui	t3,0x1d
    4dce:	7020                	flw	fs0,96(s0)
    4dd0:	7261                	lui	tp,0xffff8
    4dd2:	6d61                	lui	s10,0x18
    4dd4:	7465                	lui	s0,0xffff9
    4dd6:	7265                	lui	tp,0xffff9
    4dd8:	6f662073          	csrs	0x6f6,a2
    4ddc:	2072                	fld	ft0,280(sp)
    4dde:	65726f63          	bltu	tp,s7,543c <__errno+0x700>
    4de2:	616d                	addi	sp,sp,240
    4de4:	6b72                	flw	fs6,28(sp)
    4de6:	0a2e                	slli	s4,s4,0xb
    4de8:	0000                	unimp
    4dea:	0000                	unimp
    4dec:	4b32                	lw	s6,12(sp)
    4dee:	7020                	flw	fs0,96(s0)
    4df0:	7265                	lui	tp,0xffff9
    4df2:	6f66                	flw	ft10,88(sp)
    4df4:	6d72                	flw	fs10,28(sp)
    4df6:	6e61                	lui	t3,0x18
    4df8:	72206563          	bltu	zero,sp,5522 <__errno+0x7e6>
    4dfc:	6e75                	lui	t3,0x1d
    4dfe:	7020                	flw	fs0,96(s0)
    4e00:	7261                	lui	tp,0xffff8
    4e02:	6d61                	lui	s10,0x18
    4e04:	7465                	lui	s0,0xffff9
    4e06:	7265                	lui	tp,0xffff9
    4e08:	6f662073          	csrs	0x6f6,a2
    4e0c:	2072                	fld	ft0,280(sp)
    4e0e:	65726f63          	bltu	tp,s7,546c <__errno+0x730>
    4e12:	616d                	addi	sp,sp,240
    4e14:	6b72                	flw	fs6,28(sp)
    4e16:	0a2e                	slli	s4,s4,0xb
    4e18:	0000                	unimp
    4e1a:	0000                	unimp
    4e1c:	4b32                	lw	s6,12(sp)
    4e1e:	7620                	flw	fs0,104(a2)
    4e20:	6c61                	lui	s8,0x18
    4e22:	6469                	lui	s0,0x1a
    4e24:	7461                	lui	s0,0xffff8
    4e26:	6f69                	lui	t5,0x1a
    4e28:	206e                	fld	ft0,216(sp)
    4e2a:	7572                	flw	fa0,60(sp)
    4e2c:	206e                	fld	ft0,216(sp)
    4e2e:	6170                	flw	fa2,68(a0)
    4e30:	6172                	flw	ft2,28(sp)
    4e32:	656d                	lui	a0,0x1b
    4e34:	6574                	flw	fa3,76(a0)
    4e36:	7372                	flw	ft6,60(sp)
    4e38:	6620                	flw	fs0,72(a2)
    4e3a:	6320726f          	jal	tp,c46c <__BSS_END__+0x57a4>
    4e3e:	6d65726f          	jal	tp,5c514 <__BSS_END__+0x5584c>
    4e42:	7261                	lui	tp,0xffff8
    4e44:	000a2e6b          	0xa2e6b
    4e48:	5d75255b          	0x5d75255b
    4e4c:	5245                	li	tp,-15
    4e4e:	4f52                	lw	t5,20(sp)
    4e50:	2152                	fld	ft2,272(sp)
    4e52:	6c20                	flw	fs0,88(s0)
    4e54:	7369                	lui	t1,0xffffa
    4e56:	2074                	fld	fa3,192(s0)
    4e58:	20637263          	bgeu	t1,t1,505c <__errno+0x320>
    4e5c:	7830                	flw	fa2,112(s0)
    4e5e:	3025                	jal	4686 <ee_vsprintf+0x556>
    4e60:	7834                	flw	fa3,112(s0)
    4e62:	2d20                	fld	fs0,88(a0)
    4e64:	7320                	flw	fs0,96(a4)
    4e66:	6f68                	flw	fa0,92(a4)
    4e68:	6c75                	lui	s8,0x1d
    4e6a:	2064                	fld	fs1,192(s0)
    4e6c:	6562                	flw	fa0,24(sp)
    4e6e:	3020                	fld	fs0,96(s0)
    4e70:	2578                	fld	fa4,200(a0)
    4e72:	3430                	fld	fa2,104(s0)
    4e74:	0a78                	addi	a4,sp,284
    4e76:	0000                	unimp
    4e78:	5d75255b          	0x5d75255b
    4e7c:	5245                	li	tp,-15
    4e7e:	4f52                	lw	t5,20(sp)
    4e80:	2152                	fld	ft2,272(sp)
    4e82:	6d20                	flw	fs0,88(a0)
    4e84:	7461                	lui	s0,0xffff8
    4e86:	6972                	flw	fs2,28(sp)
    4e88:	2078                	fld	fa4,192(s0)
    4e8a:	20637263          	bgeu	t1,t1,508e <__errno+0x352>
    4e8e:	7830                	flw	fa2,112(s0)
    4e90:	3025                	jal	46b8 <ee_vsprintf+0x588>
    4e92:	7834                	flw	fa3,112(s0)
    4e94:	2d20                	fld	fs0,88(a0)
    4e96:	7320                	flw	fs0,96(a4)
    4e98:	6f68                	flw	fa0,92(a4)
    4e9a:	6c75                	lui	s8,0x1d
    4e9c:	2064                	fld	fs1,192(s0)
    4e9e:	6562                	flw	fa0,24(sp)
    4ea0:	3020                	fld	fs0,96(s0)
    4ea2:	2578                	fld	fa4,200(a0)
    4ea4:	3430                	fld	fa2,104(s0)
    4ea6:	0a78                	addi	a4,sp,284
    4ea8:	0000                	unimp
    4eaa:	0000                	unimp
    4eac:	5d75255b          	0x5d75255b
    4eb0:	5245                	li	tp,-15
    4eb2:	4f52                	lw	t5,20(sp)
    4eb4:	2152                	fld	ft2,272(sp)
    4eb6:	7320                	flw	fs0,96(a4)
    4eb8:	6174                	flw	fa3,68(a0)
    4eba:	6574                	flw	fa3,76(a0)
    4ebc:	6320                	flw	fs0,64(a4)
    4ebe:	6372                	flw	ft6,28(sp)
    4ec0:	3020                	fld	fs0,96(s0)
    4ec2:	2578                	fld	fa4,200(a0)
    4ec4:	3430                	fld	fa2,104(s0)
    4ec6:	2078                	fld	fa4,192(s0)
    4ec8:	202d                	jal	4ef2 <__errno+0x1b6>
    4eca:	756f6873          	csrrsi	a6,0x756,30
    4ece:	646c                	flw	fa1,76(s0)
    4ed0:	6220                	flw	fs0,64(a2)
    4ed2:	2065                	jal	4f7a <__errno+0x23e>
    4ed4:	7830                	flw	fa2,112(s0)
    4ed6:	3025                	jal	46fe <ee_vsprintf+0x5ce>
    4ed8:	7834                	flw	fa3,112(s0)
    4eda:	000a                	c.slli	zero,0x2
    4edc:	65726f43          	0x65726f43
    4ee0:	614d                	addi	sp,sp,176
    4ee2:	6b72                	flw	fs6,28(sp)
    4ee4:	5320                	lw	s0,96(a4)
    4ee6:	7a69                	lui	s4,0xffffa
    4ee8:	2065                	jal	4f90 <__errno+0x254>
    4eea:	2020                	fld	fs0,64(s0)
    4eec:	3a20                	fld	fs0,112(a2)
    4eee:	2520                	fld	fs0,72(a0)
    4ef0:	756c                	flw	fa1,108(a0)
    4ef2:	000a                	c.slli	zero,0x2
    4ef4:	6f54                	flw	fa3,28(a4)
    4ef6:	6174                	flw	fa3,68(a0)
    4ef8:	206c                	fld	fa1,192(s0)
    4efa:	6974                	flw	fa3,84(a0)
    4efc:	20736b63          	bltu	t1,t2,5112 <__errno+0x3d6>
    4f00:	2020                	fld	fs0,64(s0)
    4f02:	2020                	fld	fs0,64(s0)
    4f04:	3a20                	fld	fs0,112(a2)
    4f06:	2520                	fld	fs0,72(a0)
    4f08:	756c                	flw	fa1,108(a0)
    4f0a:	000a                	c.slli	zero,0x2
    4f0c:	6f54                	flw	fa3,28(a4)
    4f0e:	6174                	flw	fa3,68(a0)
    4f10:	206c                	fld	fa1,192(s0)
    4f12:	6974                	flw	fa3,84(a0)
    4f14:	656d                	lui	a0,0x1b
    4f16:	2820                	fld	fs0,80(s0)
    4f18:	73636573          	csrrsi	a0,0x736,6
    4f1c:	3a29                	jal	4836 <ee_printf+0x9e>
    4f1e:	2520                	fld	fs0,72(a0)
    4f20:	0a64                	addi	s1,sp,284
    4f22:	0000                	unimp
    4f24:	7449                	lui	s0,0xffff2
    4f26:	7265                	lui	tp,0xffff9
    4f28:	7461                	lui	s0,0xffff8
    4f2a:	6f69                	lui	t5,0x1a
    4f2c:	736e                	flw	ft6,248(sp)
    4f2e:	6365532f          	0x6365532f
    4f32:	2020                	fld	fs0,64(s0)
    4f34:	3a20                	fld	fs0,112(a2)
    4f36:	2520                	fld	fs0,72(a0)
    4f38:	0a64                	addi	s1,sp,284
    4f3a:	0000                	unimp
    4f3c:	5245                	li	tp,-15
    4f3e:	4f52                	lw	t5,20(sp)
    4f40:	2152                	fld	ft2,272(sp)
    4f42:	4d20                	lw	s0,88(a0)
    4f44:	7375                	lui	t1,0xffffd
    4f46:	2074                	fld	fa3,192(s0)
    4f48:	7865                	lui	a6,0xffff9
    4f4a:	6365                	lui	t1,0x19
    4f4c:	7475                	lui	s0,0xffffd
    4f4e:	2065                	jal	4ff6 <__errno+0x2ba>
    4f50:	6f66                	flw	ft10,88(sp)
    4f52:	2072                	fld	ft0,280(sp)
    4f54:	7461                	lui	s0,0xffff8
    4f56:	6c20                	flw	fs0,88(s0)
    4f58:	6165                	addi	sp,sp,112
    4f5a:	31207473          	csrrci	s0,0x312,0
    4f5e:	2030                	fld	fa2,64(s0)
    4f60:	73636573          	csrrsi	a0,0x736,6
    4f64:	6620                	flw	fs0,72(a2)
    4f66:	6120726f          	jal	tp,c578 <__BSS_END__+0x58b0>
    4f6a:	7620                	flw	fs0,104(a2)
    4f6c:	6c61                	lui	s8,0x18
    4f6e:	6469                	lui	s0,0x1a
    4f70:	7220                	flw	fs0,96(a2)
    4f72:	7365                	lui	t1,0xffff9
    4f74:	6c75                	lui	s8,0x1d
    4f76:	2174                	fld	fa3,192(a0)
    4f78:	000a                	c.slli	zero,0x2
    4f7a:	0000                	unimp
    4f7c:	7449                	lui	s0,0xffff2
    4f7e:	7265                	lui	tp,0xffff9
    4f80:	7461                	lui	s0,0xffff8
    4f82:	6f69                	lui	t5,0x1a
    4f84:	736e                	flw	ft6,248(sp)
    4f86:	2020                	fld	fs0,64(s0)
    4f88:	2020                	fld	fs0,64(s0)
    4f8a:	2020                	fld	fs0,64(s0)
    4f8c:	3a20                	fld	fs0,112(a2)
    4f8e:	2520                	fld	fs0,72(a0)
    4f90:	756c                	flw	fa1,108(a0)
    4f92:	000a                	c.slli	zero,0x2
    4f94:	31434347          	fmsub.s	ft6,ft6,fs4,ft6,rmm
    4f98:	2e30                	fld	fa2,88(a2)
    4f9a:	2e31                	jal	52b6 <__errno+0x57a>
    4f9c:	0030                	addi	a2,sp,8
    4f9e:	0000                	unimp
    4fa0:	706d6f43          	fmadd.s	ft10,fs10,ft6,fa4,unknown
    4fa4:	6c69                	lui	s8,0x1a
    4fa6:	7265                	lui	tp,0xffff9
    4fa8:	7620                	flw	fs0,104(a2)
    4faa:	7265                	lui	tp,0xffff9
    4fac:	6e6f6973          	csrrsi	s2,0x6e6,30
    4fb0:	3a20                	fld	fs0,112(a2)
    4fb2:	2520                	fld	fs0,72(a0)
    4fb4:	00000a73          	0xa73
    4fb8:	4f2d                	li	t5,11
    4fba:	2030                	fld	fa2,64(s0)
    4fbc:	542d                	li	s0,-21
    4fbe:	6574                	flw	fa3,76(a0)
    4fc0:	7478                	flw	fa4,108(s0)
    4fc2:	3020                	fld	fs0,96(s0)
    4fc4:	3078                	fld	fa4,224(s0)
    4fc6:	3030                	fld	fa2,96(s0)
    4fc8:	3030                	fld	fa2,96(s0)
    4fca:	3630                	fld	fa2,104(a2)
    4fcc:	2038                	fld	fa4,64(s0)
    4fce:	652d                	lui	a0,0xb
    4fd0:	6d20                	flw	fs0,88(a0)
    4fd2:	6961                	lui	s2,0x18
    4fd4:	206e                	fld	ft0,216(sp)
    4fd6:	442d                	li	s0,11
    4fd8:	4550                	lw	a2,12(a0)
    4fda:	4652                	lw	a2,20(sp)
    4fdc:	414d524f          	fnmadd.s	ft4,fs10,fs4,fs0,unknown
    4fe0:	434e                	lw	t1,208(sp)
    4fe2:	5f45                	li	t5,-15
    4fe4:	5552                	lw	a0,52(sp)
    4fe6:	3d4e                	fld	fs10,240(sp)
    4fe8:	2031                	jal	4ff4 <__errno+0x2b8>
    4fea:	2d20                	fld	fs0,88(a0)
    4fec:	2d20304f          	0x2d20304f
    4ff0:	7454                	flw	fa3,44(s0)
    4ff2:	7865                	lui	a6,0xffff9
    4ff4:	2074                	fld	fa3,192(s0)
    4ff6:	7830                	flw	fa2,112(s0)
    4ff8:	3030                	fld	fa2,96(s0)
    4ffa:	3030                	fld	fa2,96(s0)
    4ffc:	3030                	fld	fa2,96(s0)
    4ffe:	3030                	fld	fa2,96(s0)
    5000:	2d20                	fld	fs0,88(a0)
    5002:	2065                	jal	50aa <__errno+0x36e>
    5004:	616d                	addi	sp,sp,240
    5006:	6e69                	lui	t3,0x1a
    5008:	0000                	unimp
    500a:	0000                	unimp
    500c:	706d6f43          	fmadd.s	ft10,fs10,ft6,fa4,unknown
    5010:	6c69                	lui	s8,0x1a
    5012:	7265                	lui	tp,0xffff9
    5014:	6620                	flw	fs0,72(a2)
    5016:	616c                	flw	fa1,68(a0)
    5018:	20207367          	0x20207367
    501c:	3a20                	fld	fs0,112(a2)
    501e:	2520                	fld	fs0,72(a0)
    5020:	00000a73          	0xa73
    5024:	43415453          	0x43415453
    5028:	0000004b          	fnmsub.s	ft0,ft0,ft0,ft0,rne
    502c:	654d                	lui	a0,0x13
    502e:	6f6d                	lui	t5,0x1b
    5030:	7972                	flw	fs2,60(sp)
    5032:	6c20                	flw	fs0,88(s0)
    5034:	7461636f          	jal	t1,1b77a <__BSS_END__+0x14ab2>
    5038:	6f69                	lui	t5,0x1a
    503a:	206e                	fld	ft0,216(sp)
    503c:	3a20                	fld	fs0,112(a2)
    503e:	2520                	fld	fs0,72(a0)
    5040:	00000a73          	0xa73
    5044:	64656573          	csrrsi	a0,0x646,10
    5048:	20637263          	bgeu	t1,t1,524c <__errno+0x510>
    504c:	2020                	fld	fs0,64(s0)
    504e:	2020                	fld	fs0,64(s0)
    5050:	2020                	fld	fs0,64(s0)
    5052:	2020                	fld	fs0,64(s0)
    5054:	3a20                	fld	fs0,112(a2)
    5056:	3020                	fld	fs0,96(s0)
    5058:	2578                	fld	fa4,200(a0)
    505a:	3430                	fld	fa2,104(s0)
    505c:	0a78                	addi	a4,sp,284
    505e:	0000                	unimp
    5060:	5d64255b          	0x5d64255b
    5064:	6c637263          	bgeu	t1,t1,5728 <__errno+0x9ec>
    5068:	7369                	lui	t1,0xffffa
    506a:	2074                	fld	fa3,192(s0)
    506c:	2020                	fld	fs0,64(s0)
    506e:	2020                	fld	fs0,64(s0)
    5070:	2020                	fld	fs0,64(s0)
    5072:	203a                	fld	ft0,392(sp)
    5074:	7830                	flw	fa2,112(s0)
    5076:	3025                	jal	489e <__udivsi3+0x22>
    5078:	7834                	flw	fa3,112(s0)
    507a:	000a                	c.slli	zero,0x2
    507c:	5d64255b          	0x5d64255b
    5080:	6d637263          	bgeu	t1,s6,5744 <__errno+0xa08>
    5084:	7461                	lui	s0,0xffff8
    5086:	6972                	flw	fs2,28(sp)
    5088:	2078                	fld	fa4,192(s0)
    508a:	2020                	fld	fs0,64(s0)
    508c:	2020                	fld	fs0,64(s0)
    508e:	203a                	fld	ft0,392(sp)
    5090:	7830                	flw	fa2,112(s0)
    5092:	3025                	jal	48ba <__udivsi3+0x3e>
    5094:	7834                	flw	fa3,112(s0)
    5096:	000a                	c.slli	zero,0x2
    5098:	5d64255b          	0x5d64255b
    509c:	73637263          	bgeu	t1,s6,57c0 <__errno+0xa84>
    50a0:	6174                	flw	fa3,68(a0)
    50a2:	6574                	flw	fa3,76(a0)
    50a4:	2020                	fld	fs0,64(s0)
    50a6:	2020                	fld	fs0,64(s0)
    50a8:	2020                	fld	fs0,64(s0)
    50aa:	203a                	fld	ft0,392(sp)
    50ac:	7830                	flw	fa2,112(s0)
    50ae:	3025                	jal	48d6 <__umodsi3+0x12>
    50b0:	7834                	flw	fa3,112(s0)
    50b2:	000a                	c.slli	zero,0x2
    50b4:	5d64255b          	0x5d64255b
    50b8:	66637263          	bgeu	t1,t1,571c <__errno+0x9e0>
    50bc:	6e69                	lui	t3,0x1a
    50be:	6c61                	lui	s8,0x18
    50c0:	2020                	fld	fs0,64(s0)
    50c2:	2020                	fld	fs0,64(s0)
    50c4:	2020                	fld	fs0,64(s0)
    50c6:	203a                	fld	ft0,392(sp)
    50c8:	7830                	flw	fa2,112(s0)
    50ca:	3025                	jal	48f2 <__umodsi3+0x2e>
    50cc:	7834                	flw	fa3,112(s0)
    50ce:	000a                	c.slli	zero,0x2
    50d0:	72726f43          	fmadd.d	ft10,ft4,ft7,fa4,unknown
    50d4:	6365                	lui	t1,0x19
    50d6:	2074                	fld	fa3,192(s0)
    50d8:	7265706f          	j	5c7fe <__BSS_END__+0x55b36>
    50dc:	7461                	lui	s0,0xffff8
    50de:	6f69                	lui	t5,0x1a
    50e0:	206e                	fld	ft0,216(sp)
    50e2:	6176                	flw	ft2,92(sp)
    50e4:	696c                	flw	fa1,84(a0)
    50e6:	6164                	flw	fs1,68(a0)
    50e8:	6574                	flw	fa3,76(a0)
    50ea:	2e64                	fld	fs1,216(a2)
    50ec:	5320                	lw	s0,96(a4)
    50ee:	6565                	lui	a0,0x19
    50f0:	5220                	lw	s0,96(a2)
    50f2:	4145                	li	sp,17
    50f4:	4d44                	lw	s1,28(a0)
    50f6:	2e45                	jal	54a6 <__errno+0x76a>
    50f8:	646d                	lui	s0,0x1b
    50fa:	6620                	flw	fs0,72(a2)
    50fc:	7220726f          	jal	tp,c81e <__BSS_END__+0x5b56>
    5100:	6e75                	lui	t3,0x1d
    5102:	6120                	flw	fs0,64(a0)
    5104:	646e                	flw	fs0,216(sp)
    5106:	7220                	flw	fs0,96(a2)
    5108:	7065                	c.lui	zero,0xffff9
    510a:	6974726f          	jal	tp,4cfa0 <__BSS_END__+0x462d8>
    510e:	676e                	flw	fa4,216(sp)
    5110:	7220                	flw	fs0,96(a2)
    5112:	6c75                	lui	s8,0x1d
    5114:	7365                	lui	t1,0xffff9
    5116:	0a2e                	slli	s4,s4,0xb
    5118:	0000                	unimp
    511a:	0000                	unimp
    511c:	7245                	lui	tp,0xffff1
    511e:	6f72                	flw	ft10,28(sp)
    5120:	7372                	flw	ft6,60(sp)
    5122:	6420                	flw	fs0,72(s0)
    5124:	7465                	lui	s0,0xffff9
    5126:	6365                	lui	t1,0x19
    5128:	6574                	flw	fa3,76(a0)
    512a:	0a64                	addi	s1,sp,284
    512c:	0000                	unimp
    512e:	0000                	unimp
    5130:	6e6e6143          	fmadd.q	ft2,ft8,ft6,fa3,unknown
    5134:	7620746f          	jal	s0,c896 <__BSS_END__+0x5bce>
    5138:	6c61                	lui	s8,0x18
    513a:	6469                	lui	s0,0x1a
    513c:	7461                	lui	s0,0xffff8
    513e:	2065                	jal	51e6 <__errno+0x4aa>
    5140:	7265706f          	j	5c866 <__BSS_END__+0x55b9e>
    5144:	7461                	lui	s0,0xffff8
    5146:	6f69                	lui	t5,0x1a
    5148:	206e                	fld	ft0,216(sp)
    514a:	6f66                	flw	ft10,88(sp)
    514c:	2072                	fld	ft0,280(sp)
    514e:	6874                	flw	fa3,84(s0)
    5150:	7365                	lui	t1,0xffff9
    5152:	2065                	jal	51fa <__errno+0x4be>
    5154:	64656573          	csrrsi	a0,0x646,10
    5158:	7620                	flw	fs0,104(a2)
    515a:	6c61                	lui	s8,0x18
    515c:	6575                	lui	a0,0x1d
    515e:	70202c73          	csrr	s8,0x702
    5162:	656c                	flw	fa1,76(a0)
    5164:	7361                	lui	t1,0xffff8
    5166:	2065                	jal	520e <__errno+0x4d2>
    5168:	706d6f63          	bltu	s10,t1,5886 <__errno+0xb4a>
    516c:	7261                	lui	tp,0xffff8
    516e:	2065                	jal	5216 <__errno+0x4da>
    5170:	68746977          	0x68746977
    5174:	7220                	flw	fs0,96(a2)
    5176:	7365                	lui	t1,0xffff9
    5178:	6c75                	lui	s8,0x1d
    517a:	7374                	flw	fa3,100(a4)
    517c:	6f20                	flw	fs0,88(a4)
    517e:	206e                	fld	ft0,216(sp)
    5180:	2061                	jal	5208 <__errno+0x4cc>
    5182:	776f6e6b          	0x776f6e6b
    5186:	206e                	fld	ft0,216(sp)
    5188:	6c70                	flw	fa2,92(s0)
    518a:	7461                	lui	s0,0xffff8
    518c:	6f66                	flw	ft10,88(sp)
    518e:	6d72                	flw	fs10,28(sp)
    5190:	0a2e                	slli	s4,s4,0xb
    5192:	0000                	unimp
    5194:	3035                	jal	49c0 <__libc_init_array+0x68>
    5196:	3231                	jal	4aa2 <memset+0xae>
    5198:	0000                	unimp
    519a:	0000                	unimp
    519c:	3231                	jal	4aa8 <memset+0xb4>
    519e:	00003433          	snez	s0,zero
    51a2:	0000                	unimp
    51a4:	382d                	jal	49de <__libc_init_array+0x86>
    51a6:	00003437          	lui	s0,0x3
    51aa:	0000                	unimp
    51ac:	3232312b          	0x3232312b
    51b0:	0000                	unimp
    51b2:	0000                	unimp
    51b4:	352e3533          	0x352e3533
    51b8:	3434                	fld	fa3,104(s0)
    51ba:	3030                	fld	fa2,96(s0)
    51bc:	0000                	unimp
    51be:	0000                	unimp
    51c0:	312e                	fld	ft2,232(sp)
    51c2:	3332                	fld	ft6,296(sp)
    51c4:	3534                	fld	fa3,104(a0)
    51c6:	3030                	fld	fa2,96(s0)
    51c8:	0000                	unimp
    51ca:	0000                	unimp
    51cc:	312d                	jal	4df6 <__errno+0xba>
    51ce:	3031                	jal	49da <__libc_init_array+0x82>
    51d0:	372e                	fld	fa4,232(sp)
    51d2:	3030                	fld	fa2,96(s0)
    51d4:	0000                	unimp
    51d6:	0000                	unimp
    51d8:	362e302b          	0x362e302b
    51dc:	3434                	fld	fa3,104(s0)
    51de:	3030                	fld	fa2,96(s0)
    51e0:	0000                	unimp
    51e2:	0000                	unimp
    51e4:	2e35                	jal	5520 <__errno+0x7e4>
    51e6:	3035                	jal	4a12 <memset+0x1e>
    51e8:	6530                	flw	fa2,72(a0)
    51ea:	0000332b          	0x332b
    51ee:	0000                	unimp
    51f0:	2e2d                	jal	552a <__errno+0x7ee>
    51f2:	3231                	jal	4afe <__call_exitprocs+0x2e>
    51f4:	322d6533          	0x322d6533
    51f8:	0000                	unimp
    51fa:	0000                	unimp
    51fc:	382d                	jal	4a36 <memset+0x42>
    51fe:	382b6537          	lui	a0,0x382b6
    5202:	00003233          	snez	tp,zero
    5206:	0000                	unimp
    5208:	362e302b          	0x362e302b
    520c:	2d65                	jal	58c4 <__errno+0xb88>
    520e:	3231                	jal	4b1a <__call_exitprocs+0x4a>
    5210:	0000                	unimp
    5212:	0000                	unimp
    5214:	3054                	fld	fa3,160(s0)
    5216:	332e                	fld	ft6,232(sp)
    5218:	2d65                	jal	58d0 <__errno+0xb94>
    521a:	4631                	li	a2,12
    521c:	0000                	unimp
    521e:	0000                	unimp
    5220:	542d                	li	s0,-21
    5222:	542e                	lw	s0,232(sp)
    5224:	71542b2b          	0x71542b2b
    5228:	0000                	unimp
    522a:	0000                	unimp
    522c:	5431                	li	s0,-20
    522e:	65342e33          	0x65342e33
    5232:	7a34                	flw	fa3,112(a2)
    5234:	0000                	unimp
    5236:	0000                	unimp
    5238:	302e3433          	0x302e3433
    523c:	2d65                	jal	58f4 <__errno+0xbb8>
    523e:	5e54                	lw	a3,60(a2)
    5240:	0000                	unimp
    5242:	0000                	unimp
    5244:	30b4                	fld	fa3,96(s1)
    5246:	0000                	unimp
    5248:	3370                	fld	fa2,224(a4)
    524a:	0000                	unimp
    524c:	3144                	fld	fs1,160(a0)
    524e:	0000                	unimp
    5250:	3290                	fld	fa2,32(a3)
    5252:	0000                	unimp
    5254:	31c4                	fld	fs1,160(a1)
    5256:	0000                	unimp
    5258:	3224                	fld	fs1,96(a2)
    525a:	0000                	unimp
    525c:	32e8                	fld	fa0,224(a3)
    525e:	0000                	unimp
    5260:	333c                	fld	fa5,96(a4)
    5262:	0000                	unimp
    5264:	3448                	fld	fa0,168(s0)
    5266:	0000                	unimp
    5268:	340c                	fld	fa1,40(s0)
    526a:	0000                	unimp
    526c:	3418                	fld	fa4,40(s0)
    526e:	0000                	unimp
    5270:	3424                	fld	fs1,104(s0)
    5272:	0000                	unimp
    5274:	3430                	fld	fa2,104(s0)
    5276:	0000                	unimp
    5278:	343c                	fld	fa5,104(s0)
    527a:	0000                	unimp
    527c:	5245                	li	tp,-15
    527e:	4f52                	lw	t5,20(sp)
    5280:	3a52                	fld	fs4,304(sp)
    5282:	5020                	lw	s0,96(s0)
    5284:	656c                	flw	fa1,76(a0)
    5286:	7361                	lui	t1,0xffff8
    5288:	2065                	jal	5330 <__errno+0x5f4>
    528a:	6f6d                	lui	t5,0x1b
    528c:	6964                	flw	fs1,84(a0)
    528e:	7966                	flw	fs2,120(sp)
    5290:	7420                	flw	fs0,104(s0)
    5292:	6568                	flw	fa0,76(a0)
    5294:	6420                	flw	fs0,72(s0)
    5296:	7461                	lui	s0,0xffff8
    5298:	7461                	lui	s0,0xffff8
    529a:	7079                	c.lui	zero,0xffffe
    529c:	7365                	lui	t1,0xffff9
    529e:	6920                	flw	fs0,80(a0)
    52a0:	206e                	fld	ft0,216(sp)
    52a2:	65726f63          	bltu	tp,s7,5900 <__errno+0xbc4>
    52a6:	705f 726f 6d74      	0x6d74726f705f
    52ac:	2e65                	jal	5664 <__errno+0x928>
    52ae:	2168                	fld	fa0,192(a0)
    52b0:	000a                	c.slli	zero,0x2
    52b2:	0000                	unimp
    52b4:	3130                	fld	fa2,96(a0)
    52b6:	3332                	fld	ft6,296(sp)
    52b8:	3534                	fld	fa3,104(a0)
    52ba:	3736                	fld	fa4,360(sp)
    52bc:	3938                	fld	fa4,112(a0)
    52be:	6261                	lui	tp,0x18
