
build/hello-world.elf:     file format elf32-littleriscv


Disassembly of section .boot:

00000000 <_start>:
   0:	00000097          	auipc	ra,0x0
   4:	00008093          	mv	ra,ra
   8:	00002117          	auipc	sp,0x2
   c:	ff810113          	addi	sp,sp,-8 # 2000 <_end>
  10:	00000297          	auipc	t0,0x0
  14:	01028293          	addi	t0,t0,16 # 20 <__rvsteel_int_handler>
  18:	30529073          	csrw	mtvec,t0
  1c:	11c0006f          	j	138 <main>

00000020 <__rvsteel_int_handler>:
  20:	1ec00293          	li	t0,492
  24:	0002a303          	lw	t1,0(t0)
  28:	000300e7          	jalr	t1
  2c:	30200073          	mret

Disassembly of section .text:

00000030 <process_received_character>:
  30:	1e402703          	lw	a4,484(zero) # 1e4 <__RVSTEEL_UART_RX>
  34:	00d00793          	li	a5,13
  38:	00074703          	lbu	a4,0(a4)
  3c:	0ff77713          	andi	a4,a4,255
  40:	02f70463          	beq	a4,a5,68 <process_received_character+0x38>
  44:	07e00793          	li	a5,126
  48:	00e7ee63          	bltu	a5,a4,64 <process_received_character+0x34>
  4c:	1e802683          	lw	a3,488(zero) # 1e8 <__RVSTEEL_UART_TX>
  50:	00100613          	li	a2,1
  54:	0006c783          	lbu	a5,0(a3)
  58:	0ff7f793          	andi	a5,a5,255
  5c:	fec79ce3          	bne	a5,a2,54 <process_received_character+0x24>
  60:	00e68023          	sb	a4,0(a3)
  64:	00008067          	ret
  68:	05400593          	li	a1,84
  6c:	16800613          	li	a2,360
  70:	00a00513          	li	a0,10
  74:	00100693          	li	a3,1
  78:	1e802703          	lw	a4,488(zero) # 1e8 <__RVSTEEL_UART_TX>
  7c:	00074783          	lbu	a5,0(a4)
  80:	0ff7f793          	andi	a5,a5,255
  84:	fed79ce3          	bne	a5,a3,7c <process_received_character+0x4c>
  88:	00a70023          	sb	a0,0(a4)
  8c:	00160613          	addi	a2,a2,1
  90:	fc058ae3          	beqz	a1,64 <process_received_character+0x34>
  94:	00058513          	mv	a0,a1
  98:	00164583          	lbu	a1,1(a2)
  9c:	fddff06f          	j	78 <process_received_character+0x48>

000000a0 <rvsteel_uart_send_char>:
  a0:	1e802703          	lw	a4,488(zero) # 1e8 <__RVSTEEL_UART_TX>
  a4:	00100693          	li	a3,1
  a8:	00074783          	lbu	a5,0(a4)
  ac:	0ff7f793          	andi	a5,a5,255
  b0:	fed79ce3          	bne	a5,a3,a8 <rvsteel_uart_send_char+0x8>
  b4:	00a70023          	sb	a0,0(a4)
  b8:	00008067          	ret

000000bc <rvsteel_uart_send_string>:
  bc:	00054603          	lbu	a2,0(a0)
  c0:	02060463          	beqz	a2,e8 <rvsteel_uart_send_string+0x2c>
  c4:	00100693          	li	a3,1
  c8:	1e802703          	lw	a4,488(zero) # 1e8 <__RVSTEEL_UART_TX>
  cc:	00074783          	lbu	a5,0(a4)
  d0:	0ff7f793          	andi	a5,a5,255
  d4:	fed79ce3          	bne	a5,a3,cc <rvsteel_uart_send_string+0x10>
  d8:	00c70023          	sb	a2,0(a4)
  dc:	00154603          	lbu	a2,1(a0)
  e0:	00150513          	addi	a0,a0,1
  e4:	fe0612e3          	bnez	a2,c8 <rvsteel_uart_send_string+0xc>
  e8:	00008067          	ret

000000ec <rvsteel_uart_get_char>:
  ec:	1e402783          	lw	a5,484(zero) # 1e4 <__RVSTEEL_UART_RX>
  f0:	0007c503          	lbu	a0,0(a5)
  f4:	0ff57513          	andi	a0,a0,255
  f8:	00008067          	ret

000000fc <rvsteel_enable_all_interrupt_types>:
  fc:	fe512e23          	sw	t0,-4(sp)
 100:	fff00293          	li	t0,-1
 104:	30029073          	csrw	mstatus,t0
 108:	30429073          	csrw	mie,t0
 10c:	ffc12283          	lw	t0,-4(sp)
 110:	00008067          	ret

00000114 <rvsteel_disable_all_interrupt_types>:
 114:	fe512e23          	sw	t0,-4(sp)
 118:	00000293          	li	t0,0
 11c:	30029073          	csrw	mstatus,t0
 120:	30429073          	csrw	mie,t0
 124:	ffc12283          	lw	t0,-4(sp)
 128:	00008067          	ret

0000012c <rvsteel_wait_for_interrupt>:
 12c:	0000006f          	j	12c <rvsteel_wait_for_interrupt>

00000130 <rvsteel_set_interrupt_handler>:
 130:	1ea02623          	sw	a0,492(zero) # 1ec <__RVSTEEL_INT_HANDLER>
 134:	00008067          	ret

Disassembly of section .text.startup:

00000138 <main>:
 138:	ff010113          	addi	sp,sp,-16
 13c:	19000513          	li	a0,400
 140:	00112623          	sw	ra,12(sp)
 144:	f79ff0ef          	jal	ra,bc <rvsteel_uart_send_string>
 148:	03000793          	li	a5,48
 14c:	1ef02623          	sw	a5,492(zero) # 1ec <__RVSTEEL_INT_HANDLER>
 150:	fe512e23          	sw	t0,-4(sp)
 154:	fff00293          	li	t0,-1
 158:	30029073          	csrw	mstatus,t0
 15c:	30429073          	csrw	mie,t0
 160:	ffc12283          	lw	t0,-4(sp)
 164:	0000006f          	j	164 <main+0x2c>
